ARM GAS  C:\Users\unyacat\AppData\Local\Temp\ccYuwk9t.s 			page 1


   1              		.syntax unified
   2              		.cpu cortex-m0
   3              		.fpu softvfp
   4              		.eabi_attribute 20, 1
   5              		.eabi_attribute 21, 1
   6              		.eabi_attribute 23, 3
   7              		.eabi_attribute 24, 1
   8              		.eabi_attribute 25, 1
   9              		.eabi_attribute 26, 1
  10              		.eabi_attribute 30, 2
  11              		.eabi_attribute 34, 0
  12              		.eabi_attribute 18, 4
  13              		.thumb
  14              		.syntax unified
  15              		.file	"cyfitter_cfg.c"
  16              		.text
  17              	.Ltext0:
  18              		.section	.gnu.lto_.profile.92353b28,"",%progbits
  19 0000 789C6361 		.ascii	"x\234ca`d`e`\000\222\015\214f\000\0026\000\303"
  19      60646065 
  19      6000920D 
  19      8C660002 
  19      3600C3
  20              		.text
  21              		.section	.gnu.lto_.icf.92353b28,"",%progbits
  22 0000 789C6361 		.ascii	"x\234ca`d\000\001\021\006\004`f\350\231\321u\226\235"
  22      60640001 
  22      11060460 
  22      66E899D1 
  22      75969D
  23 0013 71EBACA9 		.ascii	"q\353\254\251\275\\L'\232\216o\345b\000\000St\007\355"
  23      BD5C4C27 
  23      9A8E6FE5 
  23      62000053 
  23      7407ED
  24              		.text
  25              		.section	.gnu.lto_.jmpfuncs.92353b28,"",%progbits
  26 0000 789C6361 		.ascii	"x\234ca`d\000\201~\006\004`\002a\306\277L\214\317.."
  26      60640081 
  26      7E060460 
  26      0261C6BF 
  26      4C8CCF2E 
  27 0015 5DCFF685 		.ascii	"]\317\366\205\251\225\231\201\361\0167\343rF\031\250"
  27      A9959981 
  27      F10E37E3 
  27      724619A8 
  28 0025 F8FC1933 		.ascii	"\370\374\0313\237\261\200\304\031\031/\3603\256\200"
  28      9FB180C4 
  28      19192FF0 
  28      33AE80
  29 0034 8BEFFEFC 		.ascii	"\213\357\376\374\3474\023D\\\200q%\\xk\373\231\215\\"
  29      E7341344 
  29      5C807125 
  29      5C786BFB 
  29      998D5C
  30 0047 106146C6 		.ascii	"\020aF\306Up\341\331\017\177|e\206\0107l\273\303\312"
  30      5570E1D9 
ARM GAS  C:\Users\unyacat\AppData\Local\Temp\ccYuwk9t.s 			page 2


  30      0F7F7C65 
  30      8608376C 
  30      BBC3CA
  31 005a B81A2403 		.ascii	"\270\032$\003v\016\033\210f\324\222\2018\007\000\255"
  31      760E1B88 
  31      66D49281 
  31      380700AD 
  32 006a A324B6   		.ascii	"\243$\266"
  33              		.text
  34              		.section	.gnu.lto_.inline.92353b28,"",%progbits
  35 0000 789C6361 		.ascii	"x\234ca`d\000\2018\006\004`b`\220\275\004\024g\222\333"
  35      60640081 
  35      38060460 
  35      626090BD 
  35      04146792 
  36 0015 F08A9181 		.ascii	"\360\212\221\201m\201<\023X\224\233\001$\206\203d\344"
  36      6D813C13 
  36      58949B01 
  36      24868364 
  36      E4
  37 0026 620051B2 		.ascii	"b\000Q\262\207@\"Z\007\2662\303\365\201eXx\031\031\230"
  37      8740225A 
  37      07B632C3 
  37      F5816558 
  37      78191998 
  38 003a 27F83100 		.ascii	"'\3701\000\021\000\304f\011Q"
  38      1100C466 
  38      0951
  39              		.text
  40              		.section	.gnu.lto_.pureconst.92353b28,"",%progbits
  41 0000 789C6361 		.ascii	"x\234ca`d`c```b\220b\334\305\010\000\002z\000\344"
  41      60646063 
  41      60606062 
  41      9062DCC5 
  41      0800027A 
  42              		.text
  43              		.section	.gnu.lto_ClockSetup.92353b28,"",%progbits
  44 0000 789C7594 		.ascii	"x\234u\224ML\023A\024\307\347\315\226RZ\350\242\027"
  44      4D4C1341 
  44      14C7E7CD 
  44      96525AE8 
  44      A217
  45 0012 4DE4603C 		.ascii	"M\344`<\030\271\350\305\203w\017\336\214\221+\0111X"
  45      18B9E8C5 
  45      83770FDE 
  45      8C912B09 
  45      3158
  46 0024 0C174908 		.ascii	"\014\027I\010\036\214\007\266\264+\204x\000\211\210"
  46      1E8C07B6 
  46      B42B8478 
  46      008988
  47 0033 28128282 		.ascii	"(\022\202\202\"\264|K\005\241|\3127\005J\202B\014\242"
  47      22B47C4B 
  47      05A17CCA 
  47      37054A82 
  47      420CA2
  48 0046 36060942 		.ascii	"6\006\011B\204PHa\235\331\267\273%\206n\322\331\335"
ARM GAS  C:\Users\unyacat\AppData\Local\Temp\ccYuwk9t.s 			page 3


  48      84504861 
  48      9DD9B7BB 
  48      25866ED2 
  48      D9DD
  49 0058 CE7BBFFF 		.ascii	"\316{\277\377\333\377\274\031\023\001\302/%\216\220"
  49      DBFFBC19 
  49      1301C22F 
  49      258E90
  50 0067 0BEC7E86 		.ascii	"\013\354~\206\375@ @K\246\011qZ(\000\177\220,@\362)"
  50      FD402040 
  50      4BA60971 
  50      5A28007F 
  50      902C40F2 
  51 007c E4C30E3D 		.ascii	"\344\303\016=\2400P\030\362\321\324z\211]+rg\266S\222"
  51      A0305018 
  51      F2D1D47A 
  51      895D2B72 
  51      67B65392 
  52 0090 4FCB0243 		.ascii	"O\313\002CP\225D\240\036R\011\013[m9|\222dv\363\260"
  52      509544A0 
  52      1E52090B 
  52      5B6D397C 
  52      926476F3 
  53 00a5 B338096F 		.ascii	"\2638\011o\300\314\345\2747\375\222\242\270$\177\233"
  53      C0CCE5BC 
  53      37FD92A2 
  53      B8247F9B 
  54 00b5 AD3F683F 		.ascii	"\255?h?\225@d\001\254|\260\363A\344\003!\233,\203ko"
  54      95406401 
  54      AC7CB0F3 
  54      41E40321 
  54      9B2C836B 
  55 00ca 51CAEF42 		.ascii	"Q\312\357B\010\006\266\2337\316q\006\203\227\313\003"
  55      0806B69B 
  55      37CE7106 
  55      8397CB03 
  56 00da 33F1DB54 		.ascii	"3\361\333T\026(p\255\360w\317\272\005_\233%\277db\177"
  56      162870AD 
  56      F077CFBA 
  56      055F9B25 
  56      BF64627F 
  57 00ee B93ABA6A 		.ascii	"\271:\272j\255\325P\345t\203,\010\320\000)\360\026R"
  57      ADD550E5 
  57      74832C08 
  57      D00029F0 
  57      1652
  58 0100 5811EFA0 		.ascii	"X\021\357\240\032\330|\313J\244\307\304S\000NB#\233"
  58      1AD87CCB 
  58      4AA4C7C4 
  58      53004E42 
  58      239B
  59 0112 F9052E7F 		.ascii	"\371\005.\177\257\215\3639\321\347[_\212\317?\220\212"
  59      AF8DF339 
  59      D1E75B5F 
  59      8ACF3F90 
  59      8A
  60 0123 24295916 		.ascii	"$)Y\026L\012\323!\320\004\371\254\2708\026\352\366\007"
ARM GAS  C:\Users\unyacat\AppData\Local\Temp\ccYuwk9t.s 			page 4


  60      4C0AD321 
  60      D004F9AC 
  60      B83816EA 
  60      F607
  61 0135 62849A15 		.ascii	"b\204\232\025V0\001\017\013es\317\277\205w\004\256\022"
  61      5630010F 
  61      0B6573CF 
  61      BF857704 
  61      AE12
  62 0147 0F52E772 		.ascii	"\017R\347r\034x!E\026,*`.\006 A\241\314MhF@G\341d\213"
  62      1C782145 
  62      162C2A60 
  62      2E062041 
  62      A1CC4D68 
  63 0161 1501002D 		.ascii	"\025\001\000-<\333\252f/\306\2267\261\354V\314\356\376"
  63      3CDBAA66 
  63      2FC69637 
  63      B1EC56CC 
  63      EEFE
  64 0173 1B99A098 		.ascii	"\033\231\240\230\235\014m\250\315\215,\331\245\232\221"
  64      9D0C6DA8 
  64      CD8D2CD9 
  64      A59A91
  65 0182 2F5F6C35 		.ascii	"/_l5St\316]\320\250:W:\372x\337\022u\256\335p\256\003"
  65      5374CE5D 
  65      D0A83A57 
  65      3AFA78DF 
  65      1275AEDD 
  66 0199 9DFBEC09 		.ascii	"\235\373\354\011\216$\242s\017\331\342Z\240\223\315"
  66      8E24A273 
  66      0FD9E25A 
  66      A093CD
  67 01a8 726A20A2 		.ascii	"rj \242S#\335\023UV\244>r#uio\3417\215R\337\033\324"
  67      5323DD13 
  67      5556A43E 
  67      72237569 
  67      6FE1378D 
  68 01c0 2EA4CE17 		.ascii	".\244\316\027\024\352\353\301[\306\004>\244\356\027"
  68      14EAEBC1 
  68      5BC6043E 
  68      A4EE17
  69 01cf AF5DE254 		.ascii	"\257]\342T\227\220pt\335m\352\272w\274\252-\025\361"
  69      97907074 
  69      DD6DEABA 
  69      77BCAA2D 
  69      15F1
  70 01e1 352C7539 		.ascii	"5,u9\271\316\317\235\326\200M\327I\204n\246\363A\325"
  70      B9CECF9D 
  70      D6804DD7 
  70      49846EA6 
  70      F341D5
  71 01f4 E9613A0C 		.ascii	"\351a:\014\350\012\233\021gE\342\260\262\353\027Q\227"
  71      E80A9B11 
  71      6745E2B0 
  71      B2EB1751 
  71      97
  72 0205 C247D42C 		.ascii	"\302G\324,\007\355;\014>=\236/@\257\361\035}\214\317"
ARM GAS  C:\Users\unyacat\AppData\Local\Temp\ccYuwk9t.s 			page 5


  72      07ED3B0C 
  72      3E3D9E2F 
  72      40AFF11D 
  72      7D8CCF
  73 0218 A8E8AFA2 		.ascii	"\250\350\257\242;Q7:\276\002H\210h\204\340\237\236\342"
  73      3B51373A 
  73      BE024888 
  73      6884E09F 
  73      9EE2
  74 022a A428C16F 		.ascii	"\244(\301o\020\372\321\211\232\211\022\267\031+Z\373"
  74      10FAD189 
  74      9A8912B7 
  74      192B5AFB 
  75 023a 42604073 		.ascii	"B`@s\267dH\320\230\253\316\262\257\232\273?V\272U\346"
  75      B76448D0 
  75      98ABCEB2 
  75      AF9ABB3F 
  75      56BA55E6 
  76 024e 60D0DD27 		.ascii	"`\320\335'F\231\203\006s\010\231\336u\337^\0222\011"
  76      46998306 
  76      730899DE 
  76      75DF5E12 
  76      3209
  77 0260 0CEBCECE 		.ascii	"\014\353\316\316]A+\354\274U\244\242\007\350\344\272"
  77      5D412BEC 
  77      BC55A4A2 
  77      07E8E4BA 
  78 0270 C66CAA19 		.ascii	"\306l\252\031\2538\342\344\210\341\344'\315\311\210"
  78      AB38E2E4 
  78      88E1E427 
  78      CDC988
  79 027f E6A4A811 		.ascii	"\346\244\250\021\334\213\233Z\335\273\212\242\2100\372"
  79      DC8B9B5A 
  79      DDBB8AA2 
  79      8830FA
  80 028e 9F9BBA04 		.ascii	"\237\233\272\004=^B\2001\243\354q\325LQm\365\012\373"
  80      3D5E4280 
  80      31A3EC71 
  80      D54C516D 
  80      F50AFB
  81 02a1 F1AD9EA4 		.ascii	"\361\255\236\244Pvj\301\004\266zu\305\263\220\011[="
  81      50766AC1 
  81      04B67A75 
  81      C5B39009 
  81      5B3D
  82 02b3 20C224EF 		.ascii	" \302$\357u\273\232^\031#]T\250\231\245Oazh\366\265"
  82      75BB9A5E 
  82      19235D54 
  82      A899A54F 
  82      617A68F6 
  83 02c8 572D3E19 		.ascii	"W->\031\226m0\315\323O\240\355S\272\355e\341\215r\023"
  83      966D30CD 
  83      D34FA0ED 
  83      53BAED65 
  83      E18D7213 
  84 02dc D65FA46D 		.ascii	"\326_\244m\225\207\221P\335\221\2552c\324\037@\333\313"
  84      95879150 
ARM GAS  C:\Users\unyacat\AppData\Local\Temp\ccYuwk9t.s 			page 6


  84      DD91AD32 
  84      63D41F40 
  84      DBCB
  85 02ee 0F8B2A69 		.ascii	"\017\213*i\264\251-0\253o\225i\235\372\264\275@\353"
  85      B4A92D30 
  85      AB6F9569 
  85      9DFAB4BD 
  85      40EB
  86 0300 304983EE 		.ascii	"0I\203\3567\254z\216\254\345\234\001\235gP}\361\266"
  86      37AC7A8E 
  86      ACE59C01 
  86      9D67507D 
  86      F1B6
  87 0312 03333A21 		.ascii	"\0033:!\346\316\012\362x\237\036\037\324\343c\236\214"
  87      E6CE0AF2 
  87      789F1E1F 
  87      D4E3639E 
  87      8C
  88 0323 0B3A7F0D 		.ascii	"\013:\177\015\012\374\013\327U\333\370\265\311\016?"
  88      0AFC0BD7 
  88      55DBF8B5 
  88      C90E3F
  89 0332 7604B363 		.ascii	"v\004\263c\355\3745\307]G\356\255<\307\355\214\264\234"
  89      EDFC35C7 
  89      5D47EEAD 
  89      3CC7ED8C 
  89      B49C
  90 0344 7BB9998E 		.ascii	"{\271\231\216\364\033i9W/\247g\336\317\312\316\313s"
  90      F41B6939 
  90      572FA767 
  90      DECFCACE 
  90      CB73
  91 0356 E4666466 		.ascii	"\344fdf\335\271\230I\376\001\270((\212"
  91      DDB99849 
  91      FE01B828 
  91      288A
  92              		.text
  93              		.section	.gnu.lto_cyfitter_cfg.92353b28,"",%progbits
  94 0000 789C9596 		.ascii	"x\234\225\226kLTG\024\307\347\334\331]\326\205\275X"
  94      6B4C5447 
  94      14C7E7DC 
  94      D95DD685 
  94      BD58
  95 0012 5FAD960F 		.ascii	"_\255\226\017|\250\255\332\244h%\375\3304\321\264\365"
  95      7CA8ADDA 
  95      A46825FD 
  95      D834D1B4 
  95      F5
  96 0023 431B53BE 		.ascii	"C\033S\276\232\220\206\256\215m\324D\351\207\246I\031"
  96      9A9086AE 
  96      8D6DD444 
  96      E987A649 
  96      19
  97 0034 D85D40B1 		.ascii	"\330]@\261-\245\002j1\010*\240\024\027|\200\013\012"
  97      2DA5026A 
  97      31082AA0 
  97      14177C80 
ARM GAS  C:\Users\unyacat\AppData\Local\Temp\ccYuwk9t.s 			page 7


  97      0B0A
  98 0046 0B3E2A82 		.ascii	"\013>*\202\212\320\372\242\005\004\\Q@\236>P\327\355"
  98      8AD0FAA2 
  98      05045C51 
  98      409E3E50 
  98      D7ED
  99 0058 99997BEF 		.ascii	"\231\231{\357\202X\323\336d\357\336\2319\3677\377s\316"
  99      8258D3DE 
  99      64EFDE99 
  99      39F737FF 
  99      73CE
 100 006a CC996B22 		.ascii	"\314\231k\"@\370\365\223\215\220U\370\377)\376\300B"
 100      40F8F593 
 100      8D9055F8 
 100      FF29FEC0 
 100      42
 101 007b 40C9BC48 		.ascii	"@\311\274HH\262U\001\223|\240\362\241\336jRhF,a6\263"
 101      48B25501 
 101      937CA0F2 
 101      A1DE6A52 
 101      68462C61 
 102 0091 7B016111 		.ascii	"{\001a\021f\000\336\315\254@\222\024j2C\222b\"\3403"
 102      6600DECD 
 102      AC409214 
 102      6A324392 
 102      6222E033 
 103 00a5 81226E9C 		.ascii	"\201\"n\234|_\011(\320\220\346\367*\213\213\031^]\267"
 103      7C5F0928 
 103      D090E6F7 
 103      2A8B8B19 
 103      5E5DB7
 104 00b8 0ADF6525 		.ascii	"\012\337e%>pSB\202\302\002g,\206\305\004\315\272+\236"
 104      3E705342 
 104      82C20267 
 104      2C86C504 
 104      CDBA2B9E 
 105 00cc 65DB2D2E 		.ascii	"e\333-.n\026-\007\241\004,\250P\331B\371\370\376\246"
 105      6E162D07 
 105      A1042CA8 
 105      50D942F9 
 105      F8FEA6
 106 00df 53B52A5D 		.ascii	"S\265*]\014\374y_w\376v\272p/c)\314\327\2315'\227\371"
 106      0CFC795F 
 106      77FE76BA 
 106      702F6329 
 106      CCD79935 
 107 00f6 92A3DD14 		.ascii	"\222\243\335\024\340\000P|\023\226G\301\322(\011?\010"
 107      E000507C 
 107      139647C1 
 107      D228093F 
 107      08
 108 0107 0B3D9FF9 		.ascii	"\013=\237\371X0\350d\276\235\263\352\237\316^\000\242"
 108      5830E864 
 108      BE9DB3EA 
 108      9FCE5E00 
 108      A2
 109 0118 D34CDC54 		.ascii	"\323L\334T\261\340\215\206\341\315d\305\233\331&FT|"
ARM GAS  C:\Users\unyacat\AppData\Local\Temp\ccYuwk9t.s 			page 8


 109      B1E08D86 
 109      E1CD64C5 
 109      9BD92646 
 109      547C
 110 012a B444F21B 		.ascii	"\264D\362\033!\303(\003}\035Q\024\374\243\267\201\235"
 110      21C32803 
 110      7D1D5114 
 110      FCA3B781 
 110      9D
 111 013b DA9D055C 		.ascii	"\332\235\005\\\026g\277M\374\3200\236\331l\342\035("
 111      1667BF4D 
 111      FCD0309E 
 111      D96CE21D 
 111      28
 112 014c 2AC7DD70 		.ascii	"*\307\335p)l\\q\3230\241\261\206\245\177'[\003]5\311"
 112      296C5C71 
 112      D330A1B1 
 112      86A57F27 
 112      5B035D35 
 113 0161 26EC292B 		.ascii	"&\354)+h\334\021\236\017\273\223]\030\000+\374\006Q"
 113      68DC119E 
 113      0FBB935D 
 113      18002BFC 
 113      0651
 114 0173 500AA813 		.ascii	"P\012\250\023\312 \037p\3343\340\235\260\363Wf\240\306"
 114      CA201F70 
 114      DC33E09D 
 114      B0F35766 
 114      A0C6
 115 0185 4338D20D 		.ascii	"C8\322\015)\276\373Yv\034j\314\351q\231\351{\002|\343"
 115      29BEFB59 
 115      761C6ACC 
 115      E97199E9 
 115      7B027CE3 
 116 0199 F891B619 		.ascii	"\370\221\266\031\213\212x\240|u\255s\031\263\272\251"
 116      8B8A78A0 
 116      7C75AD73 
 116      19B3BAA9 
 117 01a9 0D3CC275 		.ascii	"\015<\302u\274\3344\034\357h\327\336\261{\233]\263\363"
 117      BCDC341C 
 117      EF68D7DE 
 117      B17B9B5D 
 117      B3F3
 118 01bb 66CD1376 		.ascii	"f\315\023v\341F\330\311\3631\207\012X\004\345\260\010"
 118      E146D8C9 
 118      F331870A 
 118      5804E5B0 
 118      08
 119 01cc A3CDC340 		.ascii	"\243\315\303@\244\233p\030s\200\315\311\376\001\312"
 119      A49B7018 
 119      7380CDC9 
 119      FE01CA
 120 01db 3BC28563 		.ascii	";\302\205c`(\311\210\245~H\031M\3637=\342N\\v\225\347"
 120      6028C988 
 120      A57E4819 
 120      4DF3373D 
 120      E24E5C76 
ARM GAS  C:\Users\unyacat\AppData\Local\Temp\ccYuwk9t.s 			page 9


 121 01f1 516E1501 		.ascii	"Qn\025\001\334\347\221\013\273zT\336\264C46\2176gdG"
 121      DCE7910B 
 121      BB7A54DE 
 121      B4433436 
 121      8F366764 
 122 0206 D015C28F 		.ascii	"\320\025\302\217\2039E\036\273L\"\313w\260-\037\270"
 122      8339451E 
 122      BB4C22CB 
 122      77B02D1F 
 122      B8
 123 0217 A90A9532 		.ascii	"\251\012\2252\203\30706G!\352\205:\253\270\270\303B"
 123      83C73036 
 123      4721EA85 
 123      3AABB8B8 
 123      C342
 124 0229 DC71B038 		.ascii	"\334q\2608\251\331I\001C\245\360\026\332^-\254\375E"
 124      A9D94901 
 124      43A5F016 
 124      DA5E2DAC 
 124      FD45
 125 023b 5D5222DC 		.ascii	"]R\"\334\016\304\355\334\203^\253\232\307\340\205%\223"
 125      0EC4EDDC 
 125      835EAB9A 
 125      C7E08525 
 125      93
 126 024c 1D89143A 		.ascii	"\035\211\024:\234\217\353\306\324\244\000\333\301\330"
 126      9C8FEBC6 
 126      D4A400DB 
 126      C1D8
 127 025a 4CEC43FF 		.ascii	"L\354C\377\305\234\215\273J\277\346\311\312\024\335"
 127      C59C8DBB 
 127      4ABFE6C9 
 127      CA14DD
 128 0269 33A10692 		.ascii	"3\241\006\222\240\232K\302\261\233O\353k\255\313<\014"
 128      A09A4BC2 
 128      B19B4FEB 
 128      6BADCB3C 
 128      0C
 129 027a C77C1359 		.ascii	"\307|\023Y\357\273\351+p\002s\210Z4\301\215\217\017"
 129      EFBBE92B 
 129      70027388 
 129      5A34C18D 
 129      8F0F
 130 028c 14D99189 		.ascii	"\024\331\221\211\006,\037\270c'a\031\027H\240\026\222"
 130      062C1FB8 
 130      63276119 
 130      1748A016 
 130      92
 131 029d 74B5DC15 		.ascii	"t\265\334\025\256\011\027RJ\365H\307J\351\317\224\265"
 131      AE091752 
 131      4AF548C7 
 131      4AE9CF94 
 131      B5
 132 02ae A4FE1F89 		.ascii	"\244\376\037\211>\224X\367\357\022\353\247H\364\366"
 132      3E9458F7 
 132      EF12EBA7 
 132      48F4F6
ARM GAS  C:\Users\unyacat\AppData\Local\Temp\ccYuwk9t.s 			page 10


 133 02bd 6667CC88 		.ascii	"fg\314\210)\023\006O\262p\252Y\320\000\313\236\211\345"
 133      2913064F 
 133      B270AA59 
 133      D000CB9E 
 133      89E5
 134 02cf 01A72046 		.ascii	"\001\247 F\210*\210\221\232\302\376\273\210\323/\027"
 134      882A8891 
 134      9AC2FEBB 
 134      88D32F17 
 135 02df 71E62522 		.ascii	"q\346%\"b\334t6\234\345\"xa\202\337\245\210\321\264"
 135      62DC7436 
 135      9CE52278 
 135      6182DFA5 
 135      88D1B4
 136 02f2 37A4082B 		.ascii	"7\244\010+\352\230\224\350\206\263\277z\302\350\207"
 136      EA9894E8 
 136      86B3BF7A 
 136      C2E887
 137 0301 22401D2D 		.ascii	"\"@\035-\017\233T\255 \344f\321\235\314\347\302\202"
 137      0F9B54AD 
 137      20E466D1 
 137      9DCCE7C2 
 137      82
 138 0312 40E1DCF4 		.ascii	"@\341\334\364\345\004\215\260\020\203,6\027\372\255"
 138      E5048DB0 
 138      10832C36 
 138      17FAAD
 139 0321 C1026C7B 		.ascii	"\301\002l{\216J?\026\260\211\256@\221y\032l\016\234"
 139      8E4A3F16 
 139      B089AE40 
 139      91791A6C 
 139      0E9C
 140 0333 7F01AC89 		.ascii	"\177\001\254\211\303\254\244\017R}\336T\230\272T\331"
 140      C3ACA40F 
 140      527DDE54 
 140      98BA54D9 
 141 0343 C3FD266E 		.ascii	"\303\375&n\300g\024k5\250\300\264J\007\315b%_\300;\217"
 141      C067146B 
 141      35A8C0B4 
 141      4A07CD62 
 141      255FC03B 
 142 0358 8777A03D 		.ascii	"\207w\240=\014c\234.\20297\250(b\034.\342\242A\321\260"
 142      0C639C2E 
 142      823937A8 
 142      28621C2E 
 142      E2A241D1 
 143 036d 240A6773 		.ascii	"$\012gs\323y\306\012\342h\243\321\304\033~p\346\244"
 143      D379C60A 
 143      E268A3D1 
 143      C41B7E70 
 143      E6A4
 144 037f 5E69AAB4 		.ascii	"^i\252\264\360=\342\2446\334\035\010>\226\326\\a\223"
 144      F03DE2A4 
 144      36DC1D08 
 144      3E96D65C 
 144      6193
 145 0391 9B17E092 		.ascii	"\233\027\340\222\250-\212\276\267\321H\354e\023\301"
ARM GAS  C:\Users\unyacat\AppData\Local\Temp\ccYuwk9t.s 			page 11


 145      A82D8ABE 
 145      B7D148EC 
 145      6513C1
 146 03a0 7A4E312E 		.ascii	"zN1.3\211\354\006r\023\\\227\234\252$\311\367\360\032"
 146      3389EC06 
 146      72135C97 
 146      9CAA24C9 
 146      F7F01A
 147 03b3 4504EE7F 		.ascii	"E\004\356\177\245\204\342\233\364\370r|\325\314\353"
 147      A584E29B 
 147      F4F8727C 
 147      D5CCEB
 148 03c2 232F87C3 		.ascii	"#/\207\303\275\261\334\032g\034o\357\276\010\262\000"
 148      BDB1DC1A 
 148      671C6FEF 
 148      BE08B200 
 149 03d2 32F48717 		.ascii	"2\364\207\027\203\275\325\375?\330B\005\260\305(\200"
 149      83BDD5FD 
 149      3FD84205 
 149      B0C52880 
 150 03e2 9765014C 		.ascii	"\227e\001L~P\335He\001\304\330\014\253\320\212\243\242"
 150      7E50DD48 
 150      6501C4D8 
 150      0CABD08A 
 150      A3A2
 151 03f4 C8FA4D1A 		.ascii	"\310\372M\032\325{\3105\244\025Y\266\347\244\240\216"
 151      D57BC835 
 151      A41559B6 
 151      E7A4A08E 
 152 0404 3B735A94 		.ascii	";sZ\224\020\265\315\240\376!\251\376\352k\345\026\235"
 152      10B5CDA0 
 152      FE21A9FE 
 152      EA6BE516 
 152      9D
 153 0415 DA6B823F 		.ascii	"\332k\202?5h\313m\035\332\323_9A%\264\\\203f_\253x\242"
 153      3568CB6D 
 153      1DDAD35F 
 153      394125B4 
 153      5C83665F 
 154 042c 86A0570C 		.ascii	"\206\240W\014\350U\204\352\210\307[[?\221\261Q'\357"
 154      E85584EA 
 154      88C75B5B 
 154      3F91B151 
 154      27EF
 155 043e D9574596 		.ascii	"\331WE\226\317\027\264\015Q\331d]\022z\364\372\3261"
 155      CF17B40D 
 155      51D9645D 
 155      127AF4FA 
 155      D631
 156 0450 BB0E7D0D 		.ascii	"\273\016}\015\256#\364\232\200\336@(O\334#-i\221\222"
 156      AE23F49A 
 156      80DE4028 
 156      4FDC232D 
 156      699192
 157 0463 D8FBA4AC 		.ascii	"\330\373\244\254Z\024O\013&\252]\316\231\003\232hc\272"
 157      5A144F0B 
 157      26AA5DCE 
ARM GAS  C:\Users\unyacat\AppData\Local\Temp\ccYuwk9t.s 			page 12


 157      99039A68 
 157      63BA
 158 0475 F953A79B 		.ascii	"\371S\247\233\377\342\351\026\300\3378\335_b\272\016"
 158      FFE2E916 
 158      C0DF38DD 
 158      5F62BA0E 
 159 0485 B1072345 		.ascii	"\261\007#E\024\206\207\336\320\316\257\366G\236@\270"
 159      148687DE 
 159      D0CEAFF6 
 159      479E40B8 
 160 0495 9EB04C41 		.ascii	"\236\260LA(\336\321\374}(\010\235F\020\272ddk\252N\234"
 160      28DED1FC 
 160      7D28089D 
 160      4610BA64 
 160      646BAA4E 
 161 04aa 35CBC82E 		.ascii	"5\313\310.\205\233z\256\306\365\003\361\300\235\253"
 161      859B7AAE 
 161      C6F503F1 
 161      C09DAB
 162 04b9 27ED1298 		.ascii	"'\355\022\230\256\001[;j:i\210\330m\020{$\261\243\277"
 162      AE015B3B 
 162      6A3A6988 
 162      D86D107B 
 162      24B1A3BF 
 163 04cd A6DAA6E5 		.ascii	"\246\332\246\345\3127`\201^=W\0064\255\260\355+\311"
 163      CA376081 
 163      5E3D5706 
 163      34ADB0ED 
 163      2BC9
 164 04df DCA631D9 		.ascii	"\334\2461\331\366\353-\221!\346-\203\351\227\314C}u"
 164      F6EB2D91 
 164      21E62D83 
 164      E997CC43 
 164      7D75
 165 04f1 793A5381 		.ascii	"y:S\201\333\272\314\007:qlOvc\204\346w\252D^(\255\275"
 165      DBBACC07 
 165      3A716C4F 
 165      766384E6 
 165      77AA445E 
 166 0508 650D21FB 		.ascii	"e\015!\373\014\344\035\211\254\272WZ\245\235\324>\002"
 166      0CE41D89 
 166      ACBA575A 
 166      A59DD43E 
 166      02
 167 0519 77759106 		.ascii	"wu\221\0062P\351\331e\323<\327\220\307\012\177\316\206"
 167      3250E9D9 
 167      65D33CD7 
 167      90C70A7F 
 167      CE86
 168 052b 10B2DF40 		.ascii	"\020\262\337@\016H\244\253\266\240M\325Wi\027\201A\034"
 168      0E48A4AB 
 168      B6A04DD5 
 168      57691781 
 168      411C
 169 053d EC03A76F 		.ascii	"\354\003\247ot\2668\210\247\325\206\327\203x\366\022"
 169      74B63888 
 169      A7D586D7 
ARM GAS  C:\Users\unyacat\AppData\Local\Temp\ccYuwk9t.s 			page 13


 169      8378F612 
 170 054d B88785C1 		.ascii	"\270\207\205\301M5\227\006\351s\005h\344-q\214\007q"
 170      4D359706 
 170      E9730568 
 170      E42D718C 
 170      0771
 171 055f 6B4FAB3B 		.ascii	"kO\253;C\242\356\014\013\275?\216\237\313\323vU9~Kq"
 171      43A2EE0C 
 171      0BBD3F8E 
 171      9FCBD376 
 171      55397E4B 
 172 0574 BD77730B 		.ascii	"\275ws\013\316\310\020$\363\351\2540b(\036\225\212\033"
 172      CEC81024 
 172      F3E9AC30 
 172      62281E95 
 172      8A1B
 173 0586 46CB8B23 		.ascii	"F\313\213#\244b\012cz\014\006\251\306\314\330\277/W"
 173      A4620A63 
 173      7A0C06A9 
 173      C6CCD8BF 
 173      2F57
 174 0598 D199A705 		.ascii	"\321\231\247\005s[\345\340\221\310\311\314q\203y\237"
 174      735BE5E0 
 174      91C8C9CC 
 174      7183799F 
 175 05a8 6F2B1D92 		.ascii	"o+\035\222yO\207\\a\235\347\365\355\236\367T@\3564\245"
 175      794F875C 
 175      619DE7F5 
 175      ED9EF754 
 175      40EE34A5 
 176 05bc A75A2643 		.ascii	"\247Z&C\036\030\220\207\034\302?\234\356bm\017\304\351"
 176      1E189087 
 176      1CC23F9C 
 176      EE626D0F 
 176      C4E9
 177 05ce 1F6AF819 		.ascii	"\037j\370\031\007X\237\360d{\363#\307\006\307\246\317"
 177      07589FF0 
 177      647BF323 
 177      C706C7A6 
 177      CF
 178 05df 131D5FC4 		.ascii	"\023\035_\304\307m\374fS\202c\315\352\270\215+b\327"
 178      C76DFC66 
 178      538263CD 
 178      EAB88D2B 
 178      62D7
 179 05f1 247CBB76 		.ascii	"$|\273v]b\242cS|\302\332/\337I \260\316\266bu\334\252"
 179      5D62A263 
 179      537CC2DA 
 179      2FDF4920 
 179      B0CEB662 
 180 0608 95D1D1D1 		.ascii	"\225\321\321\321\353H\004\366\305\257w\254\337\354H"
 180      EB4804F6 
 180      C5AF77AC 
 180      DFEC48
 181 0617 8C4F54D6 		.ascii	"\214OT\326o\206\315\260\341\037!\277\274\231"
 181      6F86CDB0 
 181      E11F21BF 
ARM GAS  C:\Users\unyacat\AppData\Local\Temp\ccYuwk9t.s 			page 14


 181      BC99
 182              		.text
 183              		.section	.gnu.lto_cfg_memset_list.4884.92353b28,"",%progbits
 184 0000 789C6361 		.ascii	"x\234ca`d\000\201\271@\014a10\374eb\374{\355\365\021"
 184      60640081 
 184      B9400C61 
 184      3130FC65 
 184      62FC7BED 
 185 0016 C62F4CAD 		.ascii	"\306/L\255\314\014\214\015\034@\376\336}\327\267\362"
 185      CC0C8C0D 
 185      1C40FEDE 
 185      7DD7B7F2 
 186 0026 81F88C8C 		.ascii	"\201\370\214\214\015\015{\033X\200B\347\272\277\355"
 186      0D0D7B1B 
 186      588042E7 
 186      BABFED
 187 0035 60B7D8D6 		.ascii	"`\267\330\326\320\261\240A\241\225\231\351\037\023\003"
 187      D0B1A041 
 187      A19599E9 
 187      1F1303
 188 0044 E30A4699 		.ascii	"\343\012F\231\177L\214\214\313\031e@f<<<\177:\033T\317"
 188      7F4C8C8C 
 188      CB196540 
 188      663C3C3C 
 188      7F3A1B54 
 189 0059 833D603D 		.ascii	"\203=`=\235K\366\\eE\325\263\012E\317\264\343\223\227"
 189      9D4BF65C 
 189      6545D5B3 
 189      0A45CFB4 
 189      E39397
 190 006c F0C11530 		.ascii	"\360\301\02503\032\3120\256f\264`4\222a\\\311h\301\300"
 190      331ACA30 
 190      AE66B460 
 190      3492615C 
 190      C968C1C0 
 191 0080 B8064800 		.ascii	"\270\006H\000\000n\2048\035"
 191      006E8438 
 191      1D
 192              		.text
 193              		.section	.gnu.lto_.symbol_nodes.92353b28,"",%progbits
 194 0000 789C6361 		.ascii	"x\234ca`d\370\300\000\004Ll\365\014\014\023\31610\000"
 194      6064F8C0 
 194      00044C6C 
 194      F50C0C13 
 194      CE313000 
 195 0014 A99D0D0B 		.ascii	"\251\235\015\013\033\230\365\012\212\363\2233\3632K"
 195      1B98F50A 
 195      8AF39333 
 195      F3324B
 196 0023 80729CF5 		.ascii	"\200r\234\365\2140\271]\015\212H2\254\\\014\015B\014"
 196      8C30B95D 
 196      0D8A4832 
 196      AC5C0C0D 
 196      420C
 197 0035 0CCC8C82 		.ascii	"\014\314\214\202\365L`\025\014\014\015\015\012\014\014"
 197      F54C6015 
 197      0C0C0D0D 
ARM GAS  C:\Users\unyacat\AppData\Local\Temp\ccYuwk9t.s 			page 15


 197      0A0C0C
 198 0044 8C02F5CC 		.ascii	"\214\002\365\314(|\376z\026\024>_=+\012\237\267\236"
 198      287CFE7A 
 198      16143E5F 
 198      3D2B0A9F 
 198      B79E
 199 0056 0D85CF53 		.ascii	"\015\205\317S\317\216\302\347\256\347@\34633p0\034y"
 199      CF8EC2E7 
 199      AEE740E6 
 199      33337030 
 199      1C79
 200 0068 F08F9199 		.ascii	"\360\217\221\231\201\235\341\011\230fchy\010\242Y\031"
 200      819DE109 
 200      98666368 
 200      7908A259 
 200      19
 201 0079 96806916 		.ascii	"\226\200i\026\206\226\2567\362\314@\225K@4#'CK\373\025"
 201      8696AE37 
 201      F2CC4095 
 201      4B403423 
 201      27434BFB 
 202 008e 7B664606 		.ascii	"{fF\006\206G\375o\344\031\000\030V:A"
 202      8647FD6F 
 202      E4190018 
 202      563A41
 203              		.text
 204              		.section	.gnu.lto_.refs.92353b28,"",%progbits
 205 0000 789C6361 		.ascii	"x\234ca`d\340d```bd`bg`\342`\000\000\0018\000%"
 205      6064E064 
 205      60606062 
 205      64606267 
 205      60E26000 
 206              		.text
 207              		.section	.gnu.lto_.decls.92353b28,"",%progbits
 208 0000 789CAD57 		.ascii	"x\234\255W{PT\327\031\277\337\275\273\013,\013\0304"
 208      7B5054D7 
 208      19BFDFBD 
 208      BB0B2C0B 
 208      1834
 209 0012 89ED6C27 		.ascii	"\211\355l'h\215\222vBbB3N\373G\323!1\355\264\026\247"
 209      688D9276 
 209      42624233 
 209      4EFB47D3 
 209      2131EDB4 
 210 0028 463BED30 		.ascii	"F;\3550\343\254\313\005w\\wqw\231\224\366\217\\\004"
 210      E3ACCB05 
 210      775C7771 
 210      779994F6 
 210      8F5C04
 211 003b DFAF051F 		.ascii	"\337\257\005\037\210\242\200\017|\000\202\202\017\020"
 211      88A2800F 
 211      7C008282 
 211      0F10
 212 0049 93D5A8C1 		.ascii	"\223\325\250\301\007\021E\220\207\021\0241A\245\240"
 212      07114590 
 212      87111431 
 212      41A5A0
ARM GAS  C:\Users\unyacat\AppData\Local\Temp\ccYuwk9t.s 			page 16


 213 0058 101109D2 		.ascii	"\020\021\011\322\357\234s\357\356^\353j\377\350\035"
 213      EF9C73EF 
 213      EE5EEB6A 
 213      FFE81D
 214 0067 3EEE3DE7 		.ascii	">\356=\347|\217\337\3678\347;\253\341\200#O\315+\034"
 214      7C8FDFF7 
 214      38E73BAB 
 214      E180234F 
 214      CD2B1C
 215 007a D7C673DC 		.ascii	"\327\306s\334i\034\216\342\243\301\2719H8\305\225\""
 215      691C8EE2 
 215      A3C1B939 
 215      4838C595 
 215      22
 216 008b 5572EC09 		.ascii	"Ur\354\011A\372\032\351\"R=\3225\2446\244v\244\233H"
 216      41FA1AE9 
 216      22523DD2 
 216      35A436A4 
 216      76A49B48 
 217 009f 9D488F91 		.ascii	"\235H\217\221\210\326p\340T\017\221\213\224\365NA\032"
 217      88D670E0 
 217      540F918B 
 217      94F54E41 
 217      1A
 218 00b0 8BEBAF20 		.ascii	"\213\353\257 \215C:\213\343W\201\331iEz\015\277o\340"
 218      8D433A8B 
 218      E35781D9 
 218      69457A0D 
 218      BF6FE0
 219 00c3 7B3CBE5F 		.ascii	"{<\276_G\372\011R\023\216\177\012\014\317%Yg\220\254"
 219      47FA0952 
 219      138E7F0A 
 219      0CCF2559 
 219      6790AC
 220 00d6 B753B6DF 		.ascii	"\267S\266\337.\343\271&\343{\366!\270\177&cx\003u\315"
 220      2EE3B926 
 220      E37BF621 
 220      B87F2663 
 220      780375CD 
 221 00ea C4F76CA4 		.ascii	"\304\367l\244\311H\361HF?\\\004\243\036\337:`\270\307"
 221      C948F148 
 221      463F5C04 
 221      A31EDF3A 
 221      60B8C7
 222 00fd 2145E1F7 		.ascii	"!E\341\367\004\2440$\003\322D\244\237#\365\340\332$"
 222      04A43024 
 222      03D244A4 
 222      9F23F5E0 
 222      DA24
 223 010f 7C0FE2FB 		.ascii	"|\017\342\373\027\370~\013\351\227D\207\237\177$\226"
 223      17F87E0B 
 223      E9974487 
 223      9F7F2496 
 224 011f 41F8AD41 		.ascii	"A\370\255A\322\312X\336\003\026/\342C,<?nd\254\2211"
 224      D2CA58DE 
 224      03162FE2 
 224      432C3C3F 
ARM GAS  C:\Users\unyacat\AppData\Local\Temp\ccYuwk9t.s 			page 17


 224      6E64AC91 
 225 0134 12AC06D9 		.ascii	"\022\254\006\331\276\277\276\347=#<\354~2\334'\014\360"
 225      BEBFBEE7 
 225      3D233CEC 
 225      7E32DC27 
 225      0CF0
 226 0146 30590FA3 		.ascii	"0Y\017\243\243\002N\224\335\257\032\012c\023d\275}h"
 226      A3024E94 
 226      DDAF1A0A 
 226      631364BD 
 226      7D68
 227 0158 EFF49812 		.ascii	"\357\364\230\022\011\037\267$\361\274Opo\341\331\012"
 227      091FB724 
 227      F1BC4F70 
 227      6FE1D90A 
 228 0168 BD104A99 		.ascii	"\275\020J\231\316\214\016z\"P&R\017<\016\257\364]\334"
 228      CE8C0E7A 
 228      22502652 
 228      0F3C0EAF 
 228      F45DDC
 229 017b 168AC371 		.ascii	"\026\212\303qz\0303\302\363y\033N\226\352@\037\275\\"
 229      7A1833C2 
 229      F3791B4E 
 229      96EA401F 
 229      BD5C
 230 018d 92164B52 		.ascii	"\222\026KR\206\244\337\033\316A\011\030\241\030\214"
 230      86A4DF1B 
 230      CE410918 
 230      A1188C
 231 019c 1C1C8068 		.ascii	"\034\034\200hbk\037\304p\260\027'\367\340d\021\261\327"
 231      626B1FC4 
 231      70B01727 
 231      F7E06411 
 231      B1D7
 232 01ae D1D8F7DB 		.ascii	"\321\330\367\333*I\032\003\245\240\207\375 P\026\364"
 232      2A491A03 
 232      A5A087FD 
 232      205016F4 
 233 01be 7FB29EFC 		.ascii	"\177\262\236\374\307I\264\364m\355\276b\202~\012A?:"
 233      C749B4F4 
 233      6DEDBE62 
 233      827E0A41 
 233      3F3A
 234 01d0 1AE1877F 		.ascii	"\032\341\207\177\012\303\177\276\275\353a\210\020K\277"
 234      0AC37FBE 
 234      BDEB6188 
 234      104BBF
 235 01df 2F6796E7 		.ascii	"/g\226\347\011\014\246\006\207\017\352\266t\2063\230"
 235      090CA606 
 235      870FEAB6 
 235      74863398 
 236 01ef 5108F3C8 		.ascii	"Q\010\363\310\316\374~\255\002\323\235!E\326\"\314\012"
 236      CEFC7EAD 
 236      02D39D21 
 236      45D622CC 
 236      0A
 237 0200 447488C0 		.ascii	"Dt\210\300<\2140\247\3100\313q\262L\201\351y\362\206"
ARM GAS  C:\Users\unyacat\AppData\Local\Temp\ccYuwk9t.s 			page 18


 237      3C8C30A7 
 237      C830CB71 
 237      B24C81E9 
 237      79F286
 238 0213 C4432562 		.ascii	"\304C%b<\350\3038\205b\254\244\030\3676\364K\3726h\001"
 238      3CE8C338 
 238      8562ACA4 
 238      18F736F4 
 238      4BFA3668 
 239 0228 8193B712 		.ascii	"\201\223\267\022\007\300\376\003%\216\021\035\342\007"
 239      07C0FE03 
 239      258E111D 
 239      E207
 240 0236 CFB10F65 		.ascii	"\317\261\017e\312\373p\300Vxy\226\363)\243\177\262<"
 240      CAFB70C0 
 240      56787996 
 240      F329A37F 
 240      B23C
 241 0248 8D047DA8 		.ascii	"\215\004}\250\022\237v\220\205\300\213\200.3!\360je"
 241      129F7690 
 241      85C08B80 
 241      2E3321F0 
 241      6A65
 242 025a 2FDE27E1 		.ascii	"/\336'\341\247\357\031D\012f\305\014\307+\325q\354r"
 242      A7EF1944 
 242      0A66C50C 
 242      C72BD571 
 242      EC72
 243 026c DB5BC26F 		.ascii	"\333[\302oh\324\213\217\354\256\006\026\365\020\034"
 243      68D48B8F 
 243      ECAE0616 
 243      F5101C
 244 027b B68CEC28 		.ascii	"\266\214\354(\010\325/\247\025E\203L\026\2240sP\005"
 244      08D52FA7 
 244      1545834C 
 244      16943073 
 244      5005
 245 028d 183A78C7 		.ascii	"\030:x\307\010\307p\210\354#}\365#\006&M\202\331p\247"
 245      08C77088 
 245      EC237DF5 
 245      2306264D 
 245      82D970A7 
 246 02a1 30D3C072 		.ascii	"0\323\300rVO\226\033\037\237xb\020\246\023C\232\212"
 246      564F961B 
 246      1F9F7862 
 246      10A61343 
 246      9A8A
 247 02b3 C5ED85E1 		.ascii	"\305\355\205\341\020m\004T\006\372\"\245f9\360`rjH\370"
 247      106D0454 
 247      06FA22A5 
 247      6639F060 
 247      726A48F8 
 248 02c7 D9B34542 		.ascii	"\331\263EB\353}\237\223i\374\016\246o\232\364\276\035"
 248      EB7D9F93 
 248      69FC0EA6 
 248      6F9AF4BE 
 248      1D
ARM GAS  C:\Users\unyacat\AppData\Local\Temp\ccYuwk9t.s 			page 19


 249 02d8 926E3C07 		.ascii	"\222n<\007\357\033\341]\314\370\011\3148\221\244)\377"
 249      EF1BE15D 
 249      CCF809CC 
 249      3891A429 
 249      FF
 250 02e9 12757EC1 		.ascii	"\022u~\301\020-\336\\9\310G\272e\365\037\002e:\216\353"
 250      102DDE5C 
 250      39C847BA 
 250      65F51F02 
 250      653A8EEB 
 251 02fd D5D48193 		.ascii	"\325\324\201\223\020\251\270A\270O=x\332\0266\341\217"
 251      10A9B841 
 251      B84F3D78 
 251      DA1636E1 
 251      8F
 252 030e F9D2E628 		.ascii	"\371\322\346(\272D\352\356n\326\241 \015\206\012N\301"
 252      BA44EAEE 
 252      6ED6A120 
 252      0D860A4E 
 252      C1
 253 031f 04CAD495 		.ascii	"\004\312\324\225~6'L\230C\303\265\261j\307\036-\256"
 253      7E36274C 
 253      9843C3B5 
 253      B16AC71E 
 253      2DAE
 254 0331 C2692CA7 		.ascii	"\302i,\247\257@C\031F\316m\335\302\217\337$\007-J\003"
 254      AF404319 
 254      46CE6DDD 
 254      C28FDF24 
 254      072D4A03 
 255 0345 735EF38B 		.ascii	"s^\363\213\331Y\030\217\377\347i\230\305\242{\005S&"
 255      D959188F 
 255      FFE76998 
 255      C5A27B05 
 255      5326
 256 0357 16489E72 		.ascii	"\026H\236r\251cd\251\365\312\316\245\222;\035qR68\252"
 256      A96364A9 
 256      F5CACEA5 
 256      923B1D71 
 256      523638AA 
 257 036b D4289C01 		.ascii	"\324(\234\001\015\031\221\334\035\2016\314\337\3270"
 257      0D1991DC 
 257      1D8136CC 
 257      DFD730
 258 037a 11A55B97 		.ascii	"\021\245[\227\255\275\012\302\022\200\227\202?'\203"
 258      ADBD0AC2 
 258      12809782 
 258      3F2783
 259 0389 57013E2F 		.ascii	"W\001>/\003>\340^\221\247G\024\005\345\222''[\310\225"
 259      033EE05E 
 259      91A74714 
 259      05E59227 
 259      275BC895 
 260 039d 3C99889D 		.ascii	"<\231\210\235\247\030j\275\030. \206Z\177\014\027)\206"
 260      A7186ABD 
 260      182E2086 
 260      5A7F0C17 
ARM GAS  C:\Users\unyacat\AppData\Local\Temp\ccYuwk9t.s 			page 20


 260      2986
 261 03af 03AD472B 		.ascii	"\003\255G+C\205l\206aS\303\300\020P\203\344\034@'qn"
 261      43856C86 
 261      6153C3C0 
 261      105083E4 
 261      1C402771 
 262 03c4 59C6916A 		.ascii	"Y\306\221j!`8.\321p|\003r<\3567\337\034\211@(\035x\244"
 262      2160382E 
 262      D1707C03 
 262      723CEE37 
 262      DF1C8940 
 263 03dc 0C9DB7F5 		.ascii	"\014\235\267\365\037\2222C\010\017\324\371\366k\235"
 263      1F923243 
 263      080FD4F9 
 263      F66B9D
 264 03eb 5C1D504F 		.ascii	"\\\035PO\001l\356\352h\011\025j\030\200\236\336\374"
 264      016CEEEA 
 264      6809156A 
 264      18809EDE 
 264      FC
 265 03fc 3AE671A5 		.ascii	":\346q\245\027@\343\221%\367C\205:\312\300\227\026\256"
 265      1740E391 
 265      25F74385 
 265      3ACAC097 
 265      16AE
 266 040e 2ED3053C 		.ascii	".\323\005<8\032\003\035\034\035\215\003\263\017.#A\271"
 266      381A031D 
 266      1C1D8D03 
 266      B30F2E23 
 266      41B9
 267 0420 8A7A1B9E 		.ascii	"\212z\033\2369<\320H\365\251\242Y\376N\0226\237\227"
 267      393CD048 
 267      F5A9A259 
 267      FE4E1236 
 267      9F97
 268 0432 4DD4CB2B 		.ascii	"M\324\313+\212\227\025]U\2475\212\227+\247\337\332\271"
 268      8A97155D 
 268      55A7358A 
 268      972BA7DF 
 268      DAB9
 269 0444 D4E306CA 		.ascii	"\324\343\006\312\005\227}\252/+~^\243~~\361c\367:\020"
 269      05977DAA 
 269      2F2B7E5E 
 269      A37E7EF1 
 269      63F73A10 
 270 0458 9A02FBF9 		.ascii	"\232\002\373\371C\177\301\335\340\200\201n\245\020Z"
 270      437FC1DD 
 270      E080816E 
 270      A5105A
 271 0467 14086BD7 		.ascii	"\024\010k\327^\355\011a\020<U\3130\347\2474\204\005"
 271      5EED0961 
 271      103C55CB 
 271      30E7A734 
 271      8405
 272 0479 9A7DF69B 		.ascii	"\232}\366\233\025\373m\324\376\360\3653\203\032\341"
 272      15FB6DD4 
 272      FEF0F533 
ARM GAS  C:\Users\unyacat\AppData\Local\Temp\ccYuwk9t.s 			page 21


 272      831AE1
 273 0488 5E60FBD9 		.ascii	"^`\373\331\356\212\373\252DW\252bp\203\002\370V\001"
 273      EE8AFBAA 
 273      4457AA62 
 273      708302F8 
 273      5601
 274 049a B0F24CED 		.ascii	"\260\362L\355]\220c\220\223\375\351I9\006\310\005\327"
 274      5D906390 
 274      93FDE949 
 274      3906C805 
 274      D7
 275 04ab 7D18AE2B 		.ascii	"}\030\256+\030\332)\206\374\025;\237j\204\335<\305p"
 275      18DA2986 
 275      FC153B9F 
 275      6A84DD3C 
 275      C570
 276 04bd 21EFDA6D 		.ascii	"!\357\332m\203\267V\354\254V\210\017\035>\371\016E\376"
 276      83B756EC 
 276      AC56880F 
 276      1D3EF90E 
 276      45FE
 277 04cf 26952F79 		.ascii	"&\225/y\370\250O\020*\230|\367\323k\223\274\000\342"
 277      F8A84F10 
 277      2A987CF7 
 277      D36B93BC 
 277      00E2
 278 04e1 1500A4E8 		.ascii	"\025\000\244\350o\371\024\334R\024tR\005eGk\326h\205"
 278      6FF914DC 
 278      52147452 
 278      0565476B 
 278      D66885
 279 04f4 D34C415D 		.ascii	"\323LA]Y\367*\235p\201\015\312\267\3369O\"\002]T\202"
 279      59F72A9D 
 279      70810DCA 
 279      B7DE394F 
 279      22025D54 
 280 0509 CCA47BF6 		.ascii	"\314\244{\366\204\011\365ly\307\356\355WB\310\362w\270"
 280      8409F56C 
 280      79C7EEED 
 280      5742C8F2 
 280      77B8
 281 051b 0C778046 		.ascii	"\014w\200FL\351\210\361\377\335\021\343YG\3345\324{"
 281      4CE988F1 
 281      FFDD11E3 
 281      5947DC35 
 281      D47B
 282 052d D4203453 		.ascii	"\324 4S\035|\301\232\322n-D\263\323\262ctSB\377\022"
 282      1D7CC19A 
 282      D26E2D44 
 282      B3D3B263 
 282      745342FF 
 283 0542 52913D18 		.ascii	"R\221=\030\346{>\304\361\244\"\237_\336\367\261\274"
 283      E67B3EC4 
 283      F1A4229F 
 283      5FDEF7B1 
 283      BC
 284 0553 E3E5F2BE 		.ascii	"\343\345\362\276\213\223\335\354\220l\256\2718 \320"
ARM GAS  C:\Users\unyacat\AppData\Local\Temp\ccYuwk9t.s 			page 22


 284      8B93DDEC 
 284      906CAEB9 
 284      3820D0
 285 0562 64F67893 		.ascii	"d\366x\223\331|\363T\267\206\316\315\324\303\277\031"
 285      D97CF354 
 285      B786CECD 
 285      D4C3BF19 
 286 0572 DCDED6D3 		.ascii	"\334\336\326\323\243<\235\233m\200^6\327\224\261\372"
 286      A33C9D9B 
 286      6D805E36 
 286      D794B1FA 
 287 0582 51F88476 		.ascii	"Q\370\204v!_\012\246N\237\310\355\256`r\017\344#\347"
 287      215F0AA6 
 287      4E9FC8ED 
 287      AE60720F 
 287      E423E7
 288 0595 D1AD35EB 		.ascii	"\321\2555\353\203\204\233\002\365\347A~\177\221\216"
 288      83849B02 
 288      F5E7417E 
 288      7F918E
 289 05a4 84A11F01 		.ascii	"\204\241\037\001?\224\317\237\201\353\2715Z\241\233"
 289      3F94CF9F 
 289      81EBB935 
 289      5AA19B
 290 05b3 7114E7EC 		.ascii	"q\024\347\354\252\247q\374\201\004j\200Y\031\334\177"
 290      AAA771FC 
 290      81046A80 
 290      5919DC7F 
 291 05c3 F671887F 		.ascii	"\366q\210\177i!\000\331+x\204,0H\213\253O)\256u\025"
 291      692100D9 
 291      2B78842C 
 291      30488BAB 
 291      4F29AE75 
 292 05d8 A36B6975 		.ascii	"\243kiu\273\245\216\206vcNFA\255\344\201\033<\341\203"
 292      BBA58E86 
 292      76634E46 
 292      41ADE481 
 292      1B3CE183 
 293 05ec DBDE23ED 		.ascii	"\333\336#\355{<\322n+\011~L\023|\256\367\3460\010\235"
 293      7B3CD26E 
 293      2B097E4C 
 293      137CAEF7 
 293      E630089D 
 294 0600 1A8A65F8 		.ascii	"\032\212e\370\373\015-r74\220fr\274%+\202\365\263\016"
 294      FB0D2D72 
 294      37349066 
 294      72BC252B 
 294      82F5B30E 
 295 0614 B25C3370 		.ascii	"\262\\3p=Bx\314X\017ok\332\376\202N9\242t\312wi\304"
 295      3D4278CC 
 295      580F6F6B 
 295      DAFE824E 
 295      39A274CA 
 296 062b AF1EECFD 		.ascii	"\257\036\354\375\206\027\226k\251\350\241\257\006[\015"
 296      8617966B 
 296      A9E8A1AF 
 296      065B0D
ARM GAS  C:\Users\unyacat\AppData\Local\Temp\ccYuwk9t.s 			page 23


 297 063a 829B0DCA 		.ascii	"\202\233\015\312s\007\277\325\023\367G\2252\272=\\Z"
 297      7307BFD5 
 297      13F74795 
 297      32BA3D5C 
 297      5A
 298 064b 1DCE40E8 		.ascii	"\035\316@\350px\374h\315Y-\003\361.\251\253\364\306"
 298      7078FC68 
 298      CD592D03 
 298      F12EA9AB 
 298      F4C6
 299 065d 0B61420E 		.ascii	"\013aB\016\025\326\254^\267\261(\024&E\217\235\264\203"
 299      15D6AC5E 
 299      B7B12814 
 299      26458F9D 
 299      B483
 300 066f E41F5B4A 		.ascii	"\344\037[J|e\306R\251<\221\036\307\031\274\000K\371"
 300      7C65C652 
 300      A93C911E 
 300      C719BC00 
 300      4BF9
 301 0681 B1BEDBDC 		.ascii	"\261\276\333\334;\004Y\005\301'\337\216\252\262_\223"
 301      3B045905 
 301      C127DF8E 
 301      AAB25F93 
 302 0691 B0C72213 		.ascii	"\260\307\"\023=\335\345\026\234\305\272\347r\011\026"
 302      3DDDE516 
 302      9CC5BAE7 
 302      720916
 303 06a0 71B09837 		.ascii	"q\260\2307B:\222\304c\324\2116\344\203%|4,\343'A&?\211"
 303      423A92C4 
 303      63D48936 
 303      E483257C 
 303      342CE327 
 304 06b8 4A50EB9E 		.ascii	"JP\353\236\343\331\343\260\225d\011$YO\201\331\366\226"
 304      E3D9E3B0 
 304      95640924 
 304      594F81D9 
 304      F696
 305 06ca 22B53DD5 		.ascii	"\"\265=\325\310\\<\267\2513S+\344Q'\370e\355\353\223"
 305      C85C3CB7 
 305      A933532B 
 305      E45127F8 
 305      65EDEB93 
 306 06de 217A2C43 		.ascii	"!z,C\364\345\225W\011\242\225(\272\034\3413P\024``\\"
 306      F4E59557 
 306      09A29528 
 306      BA1CE133 
 306      50146060 
 307 06f3 B002E104 		.ascii	"\260\002\341\004\202\206\326JW?M\327\370\356\004\213"
 307      8286D64A 
 307      573F4DD7 
 307      F8EE048B 
 308 0703 A8F66104 		.ascii	"\250\366a\004\366\204\246j\025\037\251$\2146\307\272"
 308      F684A66A 
 308      151FA924 
 308      8C36C7BA 
 309 0713 8315A163 		.ascii	"\203\025\241ce[\265/\262\305=khMuN\206\301\337\320\352"
ARM GAS  C:\Users\unyacat\AppData\Local\Temp\ccYuwk9t.s 			page 24


 309      655BB52F 
 309      B2C53D6B 
 309      684D754E 
 309      86C1DFD0 
 310 0728 17192A6C 		.ascii	"\027\031*l\271sW\377\346N\251\036\257\003\015\331\223"
 310      B97357FF 
 310      E64EA91E 
 310      AF030DD9 
 310      93
 311 0739 D3B10B47 		.ascii	"\323\261\013G\301\032>\022~\004\352\270\237\344\020"
 311      C11A3E12 
 311      7E04EAB8 
 311      9FE410
 312 0748 CE7C8A35 		.ascii	"\316|\2125\262\226\177\223\264\236\222\262\315\002)"
 312      B2967F93 
 312      B49E92B2 
 312      CD0229
 313 0757 BD8CFFED 		.ascii	"\275\214\377\355&LDnHyZa\037\013x\325\261{%\341\254"
 313      264C446E 
 313      48795A61 
 313      1F0B78D5 
 313      B17B25E1 
 314 076c 253E4743 		.ascii	"%>GC6\037\260%\326\314\311ZA\016\240,^\017n\336{\000"
 314      361FB025 
 314      D6CCC95A 
 314      410EA02C 
 314      5E0F6EDE 
 315 0782 ADE3658F 		.ascii	"\255\343e\217\216\324^>\034dX\351;\212(\247oS\254\347"
 315      8ED45E3E 
 315      1C6458E9 
 315      3B8A28A7 
 315      6F53ACE7 
 316 0796 0D74E7E1 		.ascii	"\015t\347\341\233l\266\256\262\357\014*nr\024\373\270"
 316      9B6CB6AE 
 316      B2EF0C2A 
 316      6E7214FB 
 316      B8
 317 07a7 37F006C5 		.ascii	"7\360\006\305\302\006*0\370EW\237Z}\253J`\243\254~#"
 317      C2062A30 
 317      F845579F 
 317      5A7DAB4A 
 317      60A3AC7E 
 318 07bc E5CE1EF8 		.ascii	"\345\316\036\370ay\260\212\373\206\212{\223\314\275"
 318      6179B08A 
 318      FB868A7B 
 318      93CCBD
 319 07cb 8972AFEF 		.ascii	"\211r\257\357}"
 319      7D
 320 07d0 B0C61B53 		.ascii	"\260\306\033S\367\313#\202\"_m\337u-Le G\345\355f\331"
 320      F7CB2382 
 320      225F6DDF 
 320      752D4C65 
 320      2047E5ED 
 321 07e6 C0666AA0 		.ascii	"\300fj\240\272\256\177\213\240\342nR\301\311\225\271"
 321      BAAE7F8B 
 321      A0E26E52 
 321      C1C995B9 
ARM GAS  C:\Users\unyacat\AppData\Local\Temp\ccYuwk9t.s 			page 25


 322 07f6 7329F7C5 		.ascii	"s)\367\305\222}\337\251\271/\251\270\267\310\334[(w"
 322      927DDFA9 
 322      B92FA9B8 
 322      B7C8DC5B 
 322      2877
 323 0808 D992DBFB 		.ascii	"\331\222\333\373\202\361\2100b[\001\277\236bd=%7\253"
 323      82F18830 
 323      625B01BF 
 323      9E62643D 
 323      2537AB
 324 081b F369A850 		.ascii	"\363i\250P\306\222\337\320Y\334\255Qz\212g\260\335H"
 324      C692DFD0 
 324      59DCAD51 
 324      7A8A67B0 
 324      DD48
 325 082d B65B3E02 		.ascii	"\266[>\002\337\346K\250\321\333Q\324\227\356\355\030"
 325      DFE64BA8 
 325      D1DB51D4 
 325      97EEED18 
 326 083d 08A31C88 		.ascii	"\010\243\034\210<\334\017[y\234DY\264\261\347\311\375"
 326      3CDC0F5B 
 326      799C4459 
 326      B4B1E7C9 
 326      FD
 327 084e E10815E0 		.ascii	"\341\010\025\340\325~\273\237\203\002\031p\001\005\334"
 327      D57EBB9F 
 327      83021970 
 327      0105DC
 328 085d 73B76FBD 		.ascii	"s\267o\275N\305M\352\336\307](s\027R\356\257WU/\016"
 328      4EC54DEA 
 328      DEC75D28 
 328      731752EE 
 328      AF57552F 
 329 0872 51B8496E 		.ascii	"Q\270In\324\027\235\331\3362\331A\331\327\225\224o\005"
 329      D4179DD9 
 329      DE32D941 
 329      D9D79594 
 329      6F05
 330 0884 BDFC7BD6 		.ascii	"\275\374{\326\375\362\337\263\260\223zP_r\262Y]\216"
 330      FDF2DFB3 
 330      B0937A50 
 330      5F72B259 
 330      5D8E
 331 0896 83AA90EF 		.ascii	"\203\252\220\357\2221\355\242F\0062\373\233t\254^^\036"
 331      9231EDA2 
 331      460632FB 
 331      9B74AC5E 
 331      5E1E
 332 08a8 237275E8 		.ascii	"#ru\350.\034\015\022\016\263\034Tl\314\335\030\244l"
 332      2E1C0D12 
 332      0EB31C54 
 332      6CCCDD18 
 332      A46C
 333 08ba 40B5F8DE 		.ascii	"@\265\370\336\347\210\263Tm\275\367{\274\245\003\354"
 333      E788B354 
 333      6DBDF77B 
 333      BCA503EC 
ARM GAS  C:\Users\unyacat\AppData\Local\Temp\ccYuwk9t.s 			page 26


 334 08ca C15C15F9 		.ascii	"\301\\\025\371r\265[\331|\205[\357\335\012U\020\271"
 334      72B55BD9 
 334      7C855BEF 
 334      DD0A5510 
 334      B9
 335 08db 5FA2925C 		.ascii	"_\242\222\\\010\2675>\014W\371\273OU\276\373e\177\367"
 335      08B7353E 
 335      0C57F9BB 
 335      4F55BEFB 
 335      657FF7
 336 08ee 537F2BEB 		.ascii	"S\177+\353{\312\264*\356=*\356b\231\273\230r\257\335"
 336      7BCAB42A 
 336      EE3D2AEE 
 336      6299BB98 
 336      72AFDD
 337 0901 FDFDD560 		.ascii	"\375\375\325`\241\232u\270\332\023u\377\022N\263\357"
 337      A19A75B8 
 337      DA1375FF 
 337      124EB3EF 
 338 0911 F39D778E 		.ascii	"\363\235w\216\321\353@)/w\273\027\337E0\267e<\235;s"
 338      D1EB4029 
 338      2F77BB17 
 338      DF4530B7 
 338      653C9D3B 
 339 0926 7E7B4F58 		.ascii	"~{OX\300\313\356A\236\\\007\312y\371:\260a\250\372\241"
 339      C0CBEE41 
 339      9E5C07CA 
 339      79F93AB0 
 339      61A8FAA1 
 340 093a D6FB336B 		.ascii	"\326\3733k\306e\3663\253\340C\312\010%J\364\340\000"
 340      C665F633 
 340      ABE043CA 
 340      08254AF4 
 340      E000
 341 094c 1EE825BC 		.ascii	"\036\350%\274\337O\234C<\271\023\264W/9\024*\\`\220"
 341      DF4F9C43 
 341      3CB913B4 
 341      572F3914 
 341      2A5C6090 
 342 0960 3B57E5B7 		.ascii	";W\345\267h\230.O\371%\003S\304\216*_\026*\374\225T"
 342      68982E4F 
 342      F9250353 
 342      C48E2A5F 
 342      162AFC95 
 343 0975 F213B9E0 		.ascii	"\362\023\271\340O\376<;*n\352TN\227j\261\271\246~0\341"
 343      4FFE3C3B 
 343      2A6EEA54 
 343      4E976AB1 
 343      B9A67E30 
 344 098a 13D1263A 		.ascii	"\023\321&:L.1q\356,{\252\303,&\314\234e\217\213M0\247"
 344      4C2E3171 
 344      EE2C7BAA 
 344      C32C26CC 
 344      9C658F8B 
 345 09a1 B9D25244 		.ascii	"\271\322RDg\314|\306\370\376{\3728\253\335\274`\226"
 345      67CC7CC6 
 345      F8FE7BFA 
ARM GAS  C:\Users\unyacat\AppData\Local\Temp\ccYuwk9t.s 			page 27


 345      38ABDDBC 
 345      6096
 346 09b3 E84A4DD1 		.ascii	"\350JM\321\230\347\233\034\372\230\024\247\335l\261"
 346      98E79B1C 
 346      FA9814A7 
 346      DD6CB1
 347 09c2 595C5C90 		.ascii	"Y\\\\\220S4\273,v\333\344\200\272\222,.\227\350\230"
 347      5334BB2C 
 347      76DBE480 
 347      BA922C2E 
 347      97E898
 348 09d5 6B4E4A8E 		.ascii	"kNJ\2161s\006\377qH\\\332G\242\325\2246\333\371F\000"
 348      317306FF 
 348      71485CDA 
 348      47A2D594 
 348      36DBF946 
 349 09ea E9B8B43F 		.ascii	"\351\270\264?Y\346!\2161qi\263\322\234q\326\005\037"
 349      59E6218E 
 349      317169B3 
 349      D29C71D6 
 349      051F
 350 09fc 9BEDB35C 		.ascii	"\233\355\263\\&\207+\330\234\346t\231\\\251\316q\312"
 350      26872BD8 
 350      9CE67499 
 350      5CA9CE71 
 350      CA
 351 0a0d CA5F1D16 		.ascii	"\312_\035\026\227\370\207\205\366\351\016q\321\353\336"
 351      97F88785 
 351      F6E90E71 
 351      D1EBDE
 352 0a1c 4964175D 		.ascii	"Id\027]3\355\237\211\216\031\366D1\220\303hf:r\243\241"
 352      33ED9F89 
 352      8E19F644 
 352      3190C368 
 352      663A72A3 
 353 0a31 3019525C 		.ascii	"0\031R\\\232\331*:\307\370\353!fu\013\305\205N\321\245"
 353      9AD92A3A 
 353      C7F8EB21 
 353      66750BC5 
 353      854ED1A5 
 354 0a45 B18AA6A4 		.ascii	"\261\212\246\244 \233\3355\337a\377L\347\264\374S\234"
 354      209BDD35 
 354      DF61FF4C 
 354      E7B4FC53 
 354      9C
 355 0a56 EBFADCFC 		.ascii	"\353\372\334\374\353\204\024\207=\331aZ\030\225dA\341"
 355      EB841487 
 355      3DD9615A 
 355      18956441 
 355      E1
 356 0a67 A8E87F4C 		.ascii	"\250\350\177L\373\340-\014@\212Ct:\023H\304\242\314"
 356      FBE02D0C 
 356      408A4374 
 356      3A1348C4 
 356      A2CC
 357 0a79 0ED1E4B2 		.ascii	"\016\321\344\262;\022bcb\325\023\226\205)v\207+!\331"
 357      3B126263 
ARM GAS  C:\Users\unyacat\AppData\Local\Temp\ccYuwk9t.s 			page 28


 357      62D51396 
 357      85297687 
 357      2B21D9
 358 0a8c 969A6072 		.ascii	"\226\232`r,L\370ULl\314\324\004\253e^B\262\331Lf\336"
 358      2C4CF855 
 358      4C6CCCD4 
 358      04AB655E 
 358      42B2D94C 
 359 0aa2 B6D96DE2 		.ascii	"\266\331m\342\333\242i\236E^\263\330\314\326\324D1\301"
 359      DBA2699E 
 359      455EB3D8 
 359      CCD6D444 
 359      31C1
 360 0ab4 E94A4C14 		.ascii	"\351JL\024\223\0209L\015J\262E9SD3\002\263\331R\255"
 360      9310394C 
 360      0D4AB245 
 360      39534433 
 360      02B3D952 
 361 0ac9 D645FF7F 		.ascii	"\326E\377\177Dj$>\014\016\213-\0311\214\303\244\316"
 361      446A243E 
 361      0C0E8B2D 
 361      19318CC3 
 361      A4CE
 362 0adb 65219A6B 		.ascii	"e!\232k\2658]1\261\323\246\305F<3\031dJL$\366u)&\363"
 362      B5385D31 
 362      B1D3A6C5 
 362      463C3319 
 362      644A4C24 
 363 0af4 02315143 		.ascii	"\0021QC\302g\360\343qi\035b\362\373\357iI\351M\323\340"
 363      C267F0E3 
 363      71691D62 
 363      F2FBEF69 
 363      49E94DD3 
 364 0b09 F7B490B8 		.ascii	"\367\264\220\270\277\315\370x\306\337?\376K\274.\325"
 364      BFCDF878 
 364      C6DF3FFE 
 364      4BBC2ED5 
 365 0b19 96EA1413 		.ascii	"\226\352\024\023\307\374\316f\262\332\2231\265\037\211"
 365      C7FCCE66 
 365      B2DA9331 
 365      B51F89
 366 0b28 49A654AB 		.ascii	"I\246T\253\353?\245\376K\350"
 366      EB3FA5FE 
 366      4BE8
 367              		.text
 368              		.section	.gnu.lto_.symtab.92353b28,"",%progbits
 369 0000 63796669 		.ascii	"cyfitter_cfg\000"
 369      74746572 
 369      5F636667 
 369      00
 370 000d 00       		.ascii	"\000"
 371 000e 00       		.ascii	"\000"
 372 000f 00       		.ascii	"\000"
 373 0010 00000000 		.ascii	"\000\000\000\000\000\000\000\000"
 373      00000000 
 374 0018 CC000000 		.ascii	"\314\000\000\000"
 375 001c 43794465 		.ascii	"CyDelayUs\000"
ARM GAS  C:\Users\unyacat\AppData\Local\Temp\ccYuwk9t.s 			page 29


 375      6C617955 
 375      7300
 376 0026 00       		.ascii	"\000"
 377 0027 02       		.ascii	"\002"
 378 0028 00       		.ascii	"\000"
 379 0029 00000000 		.ascii	"\000\000\000\000\000\000\000\000"
 379      00000000 
 380 0031 D0000000 		.ascii	"\320\000\000\000"
 381 0035 43795379 		.ascii	"CySysClkEcoStart\000"
 381      73436C6B 
 381      45636F53 
 381      74617274 
 381      00
 382 0046 00       		.ascii	"\000"
 383 0047 02       		.ascii	"\002"
 384 0048 00       		.ascii	"\000"
 385 0049 00000000 		.ascii	"\000\000\000\000\000\000\000\000"
 385      00000000 
 386 0051 D7000000 		.ascii	"\327\000\000\000"
 387 0055 43795379 		.ascii	"CySysClkWriteImoFreq\000"
 387      73436C6B 
 387      57726974 
 387      65496D6F 
 387      46726571 
 388 006a 00       		.ascii	"\000"
 389 006b 02       		.ascii	"\002"
 390 006c 00       		.ascii	"\000"
 391 006d 00000000 		.ascii	"\000\000\000\000\000\000\000\000"
 391      00000000 
 392 0075 DB000000 		.ascii	"\333\000\000\000"
 393 0079 43795379 		.ascii	"CySysClkWcoSetPowerMode\000"
 393      73436C6B 
 393      57636F53 
 393      6574506F 
 393      7765724D 
 394 0091 00       		.ascii	"\000"
 395 0092 02       		.ascii	"\002"
 396 0093 00       		.ascii	"\000"
 397 0094 00000000 		.ascii	"\000\000\000\000\000\000\000\000"
 397      00000000 
 398 009c DF000000 		.ascii	"\337\000\000\000"
 399 00a0 43794465 		.ascii	"CyDelayCycles\000"
 399      6C617943 
 399      79636C65 
 399      7300
 400 00ae 00       		.ascii	"\000"
 401 00af 02       		.ascii	"\002"
 402 00b0 00       		.ascii	"\000"
 403 00b1 00000000 		.ascii	"\000\000\000\000\000\000\000\000"
 403      00000000 
 404 00b9 E1000000 		.ascii	"\341\000\000\000"
 405 00bd 43795379 		.ascii	"CySysClkWcoStart\000"
 405      73436C6B 
 405      57636F53 
 405      74617274 
 405      00
 406 00ce 00       		.ascii	"\000"
ARM GAS  C:\Users\unyacat\AppData\Local\Temp\ccYuwk9t.s 			page 30


 407 00cf 02       		.ascii	"\002"
 408 00d0 00       		.ascii	"\000"
 409 00d1 00000000 		.ascii	"\000\000\000\000\000\000\000\000"
 409      00000000 
 410 00d9 E3000000 		.ascii	"\343\000\000\000"
 411              		.text
 412              		.section	.gnu.lto_.opts,"",%progbits
 413 0000 272D666D 		.ascii	"'-fmath-errno' '-fsigned-zeros' '-ftrapping-math' '"
 413      6174682D 
 413      6572726E 
 413      6F272027 
 413      2D667369 
 414 0033 2D666E6F 		.ascii	"-fno-trapv' '-fno-openmp' '-fno-openacc' '-mcpu=cor"
 414      2D747261 
 414      70762720 
 414      272D666E 
 414      6F2D6F70 
 415 0066 7465782D 		.ascii	"tex-m0' '-mthumb' '-g' '-O3' '-ffunction-sections' "
 415      6D302720 
 415      272D6D74 
 415      68756D62 
 415      2720272D 
 416 0099 272D6666 		.ascii	"'-ffat-lto-objects' '-finline-functions' '-flto'\000"
 416      61742D6C 
 416      746F2D6F 
 416      626A6563 
 416      74732720 
 417              		.text
 418              		.cfi_sections	.debug_frame
 419              		.section	.psocinit,"ax",%progbits
 420              		.align	2
 421              		.global	cyfitter_cfg
 422              		.code	16
 423              		.thumb_func
 424              		.type	cyfitter_cfg, %function
 425              	cyfitter_cfg:
 426              	.LFB7:
 427              		.file 1 "Generated_Source\\PSoC4\\cyfitter_cfg.c"
   1:Generated_Source\PSoC4/cyfitter_cfg.c **** 
   2:Generated_Source\PSoC4/cyfitter_cfg.c **** /*******************************************************************************
   3:Generated_Source\PSoC4/cyfitter_cfg.c **** * File Name: cyfitter_cfg.c
   4:Generated_Source\PSoC4/cyfitter_cfg.c **** * 
   5:Generated_Source\PSoC4/cyfitter_cfg.c **** * PSoC Creator  4.4
   6:Generated_Source\PSoC4/cyfitter_cfg.c **** *
   7:Generated_Source\PSoC4/cyfitter_cfg.c **** * Description:
   8:Generated_Source\PSoC4/cyfitter_cfg.c **** * This file contains device initialization code.
   9:Generated_Source\PSoC4/cyfitter_cfg.c **** * Except for the user defined sections in CyClockStartupError(), this file should not be modified.
  10:Generated_Source\PSoC4/cyfitter_cfg.c **** * This file is automatically generated by PSoC Creator.
  11:Generated_Source\PSoC4/cyfitter_cfg.c **** *
  12:Generated_Source\PSoC4/cyfitter_cfg.c **** ********************************************************************************
  13:Generated_Source\PSoC4/cyfitter_cfg.c **** * Copyright (c) 2007-2020 Cypress Semiconductor.  All rights reserved.
  14:Generated_Source\PSoC4/cyfitter_cfg.c **** * You may use this file only in accordance with the license, terms, conditions, 
  15:Generated_Source\PSoC4/cyfitter_cfg.c **** * disclaimers, and limitations in the end user license agreement accompanying 
  16:Generated_Source\PSoC4/cyfitter_cfg.c **** * the software package with which this file was provided.
  17:Generated_Source\PSoC4/cyfitter_cfg.c **** ********************************************************************************/
  18:Generated_Source\PSoC4/cyfitter_cfg.c **** 
  19:Generated_Source\PSoC4/cyfitter_cfg.c **** #include <string.h>
ARM GAS  C:\Users\unyacat\AppData\Local\Temp\ccYuwk9t.s 			page 31


  20:Generated_Source\PSoC4/cyfitter_cfg.c **** #include "cytypes.h"
  21:Generated_Source\PSoC4/cyfitter_cfg.c **** #include "cydevice_trm.h"
  22:Generated_Source\PSoC4/cyfitter_cfg.c **** #include "cyfitter.h"
  23:Generated_Source\PSoC4/cyfitter_cfg.c **** #include "CyLib.h"
  24:Generated_Source\PSoC4/cyfitter_cfg.c **** #include "cyfitter_cfg.h"
  25:Generated_Source\PSoC4/cyfitter_cfg.c **** 
  26:Generated_Source\PSoC4/cyfitter_cfg.c **** 
  27:Generated_Source\PSoC4/cyfitter_cfg.c **** #if defined(__GNUC__) || defined(__ARMCC_VERSION)
  28:Generated_Source\PSoC4/cyfitter_cfg.c ****     #define CYPACKED 
  29:Generated_Source\PSoC4/cyfitter_cfg.c ****     #define CYPACKED_ATTR __attribute__ ((packed))
  30:Generated_Source\PSoC4/cyfitter_cfg.c ****     #define CYALIGNED __attribute__ ((aligned))
  31:Generated_Source\PSoC4/cyfitter_cfg.c ****     #define CY_CFG_UNUSED __attribute__ ((unused))
  32:Generated_Source\PSoC4/cyfitter_cfg.c ****     #ifndef CY_CFG_SECTION
  33:Generated_Source\PSoC4/cyfitter_cfg.c ****         #define CY_CFG_SECTION __attribute__ ((section(".psocinit")))
  34:Generated_Source\PSoC4/cyfitter_cfg.c ****     #endif
  35:Generated_Source\PSoC4/cyfitter_cfg.c ****     
  36:Generated_Source\PSoC4/cyfitter_cfg.c ****     #if defined(__ARMCC_VERSION)
  37:Generated_Source\PSoC4/cyfitter_cfg.c ****         #define CY_CFG_MEMORY_BARRIER() __memory_changed()
  38:Generated_Source\PSoC4/cyfitter_cfg.c ****     #else
  39:Generated_Source\PSoC4/cyfitter_cfg.c ****         #define CY_CFG_MEMORY_BARRIER() __sync_synchronize()
  40:Generated_Source\PSoC4/cyfitter_cfg.c ****     #endif
  41:Generated_Source\PSoC4/cyfitter_cfg.c ****     
  42:Generated_Source\PSoC4/cyfitter_cfg.c **** #elif defined(__ICCARM__)
  43:Generated_Source\PSoC4/cyfitter_cfg.c ****     #include <intrinsics.h>
  44:Generated_Source\PSoC4/cyfitter_cfg.c **** 
  45:Generated_Source\PSoC4/cyfitter_cfg.c ****     #define CYPACKED __packed
  46:Generated_Source\PSoC4/cyfitter_cfg.c ****     #define CYPACKED_ATTR 
  47:Generated_Source\PSoC4/cyfitter_cfg.c ****     #define CYALIGNED _Pragma("data_alignment=4")
  48:Generated_Source\PSoC4/cyfitter_cfg.c ****     #define CY_CFG_UNUSED _Pragma("diag_suppress=Pe177")
  49:Generated_Source\PSoC4/cyfitter_cfg.c ****     #define CY_CFG_SECTION _Pragma("location=\".psocinit\"")
  50:Generated_Source\PSoC4/cyfitter_cfg.c ****     
  51:Generated_Source\PSoC4/cyfitter_cfg.c ****     #define CY_CFG_MEMORY_BARRIER() __DMB()
  52:Generated_Source\PSoC4/cyfitter_cfg.c ****     
  53:Generated_Source\PSoC4/cyfitter_cfg.c **** #else
  54:Generated_Source\PSoC4/cyfitter_cfg.c ****     #error Unsupported toolchain
  55:Generated_Source\PSoC4/cyfitter_cfg.c **** #endif
  56:Generated_Source\PSoC4/cyfitter_cfg.c **** 
  57:Generated_Source\PSoC4/cyfitter_cfg.c **** #ifndef CYCODE
  58:Generated_Source\PSoC4/cyfitter_cfg.c ****     #define CYCODE
  59:Generated_Source\PSoC4/cyfitter_cfg.c **** #endif
  60:Generated_Source\PSoC4/cyfitter_cfg.c **** #ifndef CYDATA
  61:Generated_Source\PSoC4/cyfitter_cfg.c ****     #define CYDATA
  62:Generated_Source\PSoC4/cyfitter_cfg.c **** #endif
  63:Generated_Source\PSoC4/cyfitter_cfg.c **** #ifndef CYFAR
  64:Generated_Source\PSoC4/cyfitter_cfg.c ****     #define CYFAR
  65:Generated_Source\PSoC4/cyfitter_cfg.c **** #endif
  66:Generated_Source\PSoC4/cyfitter_cfg.c **** #ifndef CYXDATA
  67:Generated_Source\PSoC4/cyfitter_cfg.c ****     #define CYXDATA
  68:Generated_Source\PSoC4/cyfitter_cfg.c **** #endif
  69:Generated_Source\PSoC4/cyfitter_cfg.c **** 
  70:Generated_Source\PSoC4/cyfitter_cfg.c **** 
  71:Generated_Source\PSoC4/cyfitter_cfg.c **** CY_CFG_UNUSED
  72:Generated_Source\PSoC4/cyfitter_cfg.c **** static void CYMEMZERO(void *s, size_t n);
  73:Generated_Source\PSoC4/cyfitter_cfg.c **** CY_CFG_UNUSED
  74:Generated_Source\PSoC4/cyfitter_cfg.c **** static void CYMEMZERO(void *s, size_t n)
  75:Generated_Source\PSoC4/cyfitter_cfg.c **** {
  76:Generated_Source\PSoC4/cyfitter_cfg.c **** 	(void)memset(s, 0, n);
ARM GAS  C:\Users\unyacat\AppData\Local\Temp\ccYuwk9t.s 			page 32


  77:Generated_Source\PSoC4/cyfitter_cfg.c **** }
  78:Generated_Source\PSoC4/cyfitter_cfg.c **** CY_CFG_UNUSED
  79:Generated_Source\PSoC4/cyfitter_cfg.c **** static void CYCONFIGCPY(void *dest, const void *src, size_t n);
  80:Generated_Source\PSoC4/cyfitter_cfg.c **** CY_CFG_UNUSED
  81:Generated_Source\PSoC4/cyfitter_cfg.c **** static void CYCONFIGCPY(void *dest, const void *src, size_t n)
  82:Generated_Source\PSoC4/cyfitter_cfg.c **** {
  83:Generated_Source\PSoC4/cyfitter_cfg.c **** 	(void)memcpy(dest, src, n);
  84:Generated_Source\PSoC4/cyfitter_cfg.c **** }
  85:Generated_Source\PSoC4/cyfitter_cfg.c **** CY_CFG_UNUSED
  86:Generated_Source\PSoC4/cyfitter_cfg.c **** static void CYCONFIGCPYCODE(void *dest, const void *src, size_t n);
  87:Generated_Source\PSoC4/cyfitter_cfg.c **** CY_CFG_UNUSED
  88:Generated_Source\PSoC4/cyfitter_cfg.c **** static void CYCONFIGCPYCODE(void *dest, const void *src, size_t n)
  89:Generated_Source\PSoC4/cyfitter_cfg.c **** {
  90:Generated_Source\PSoC4/cyfitter_cfg.c **** 	(void)memcpy(dest, src, n);
  91:Generated_Source\PSoC4/cyfitter_cfg.c **** }
  92:Generated_Source\PSoC4/cyfitter_cfg.c **** 
  93:Generated_Source\PSoC4/cyfitter_cfg.c **** 
  94:Generated_Source\PSoC4/cyfitter_cfg.c **** 
  95:Generated_Source\PSoC4/cyfitter_cfg.c **** 
  96:Generated_Source\PSoC4/cyfitter_cfg.c **** /* Clock startup error codes                                                   */
  97:Generated_Source\PSoC4/cyfitter_cfg.c **** #define CYCLOCKSTART_NO_ERROR    0u
  98:Generated_Source\PSoC4/cyfitter_cfg.c **** #define CYCLOCKSTART_XTAL_ERROR  1u
  99:Generated_Source\PSoC4/cyfitter_cfg.c **** #define CYCLOCKSTART_32KHZ_ERROR 2u
 100:Generated_Source\PSoC4/cyfitter_cfg.c **** #define CYCLOCKSTART_PLL_ERROR   3u
 101:Generated_Source\PSoC4/cyfitter_cfg.c **** #define CYCLOCKSTART_FLL_ERROR   4u
 102:Generated_Source\PSoC4/cyfitter_cfg.c **** #define CYCLOCKSTART_WCO_ERROR   5u
 103:Generated_Source\PSoC4/cyfitter_cfg.c **** 
 104:Generated_Source\PSoC4/cyfitter_cfg.c **** 
 105:Generated_Source\PSoC4/cyfitter_cfg.c **** #ifdef CY_NEED_CYCLOCKSTARTUPERROR
 106:Generated_Source\PSoC4/cyfitter_cfg.c **** /*******************************************************************************
 107:Generated_Source\PSoC4/cyfitter_cfg.c **** * Function Name: CyClockStartupError
 108:Generated_Source\PSoC4/cyfitter_cfg.c **** ********************************************************************************
 109:Generated_Source\PSoC4/cyfitter_cfg.c **** * Summary:
 110:Generated_Source\PSoC4/cyfitter_cfg.c **** *  If an error is encountered during clock configuration (crystal startup error,
 111:Generated_Source\PSoC4/cyfitter_cfg.c **** *  PLL lock error, etc.), the system will end up here.  Unless reimplemented by
 112:Generated_Source\PSoC4/cyfitter_cfg.c **** *  the customer, this function will stop in an infinite loop.
 113:Generated_Source\PSoC4/cyfitter_cfg.c **** *
 114:Generated_Source\PSoC4/cyfitter_cfg.c **** * Parameters:
 115:Generated_Source\PSoC4/cyfitter_cfg.c **** *   void
 116:Generated_Source\PSoC4/cyfitter_cfg.c **** *
 117:Generated_Source\PSoC4/cyfitter_cfg.c **** * Return:
 118:Generated_Source\PSoC4/cyfitter_cfg.c **** *   void
 119:Generated_Source\PSoC4/cyfitter_cfg.c **** *
 120:Generated_Source\PSoC4/cyfitter_cfg.c **** *******************************************************************************/
 121:Generated_Source\PSoC4/cyfitter_cfg.c **** CY_CFG_UNUSED
 122:Generated_Source\PSoC4/cyfitter_cfg.c **** static void CyClockStartupError(uint8 errorCode);
 123:Generated_Source\PSoC4/cyfitter_cfg.c **** CY_CFG_UNUSED
 124:Generated_Source\PSoC4/cyfitter_cfg.c **** static void CyClockStartupError(uint8 errorCode)
 125:Generated_Source\PSoC4/cyfitter_cfg.c **** {
 126:Generated_Source\PSoC4/cyfitter_cfg.c ****     /* To remove the compiler warning if errorCode not used.                */
 127:Generated_Source\PSoC4/cyfitter_cfg.c ****     errorCode = errorCode;
 128:Generated_Source\PSoC4/cyfitter_cfg.c **** 
 129:Generated_Source\PSoC4/cyfitter_cfg.c ****     /* If we have a clock startup error (bad MHz crystal, PLL lock, etc.),  */
 130:Generated_Source\PSoC4/cyfitter_cfg.c ****     /* we will end up here to allow the customer to implement something to  */
 131:Generated_Source\PSoC4/cyfitter_cfg.c ****     /* deal with the clock condition.                                       */
 132:Generated_Source\PSoC4/cyfitter_cfg.c **** 
 133:Generated_Source\PSoC4/cyfitter_cfg.c **** #ifdef CY_CFG_CLOCK_STARTUP_ERROR_CALLBACK
ARM GAS  C:\Users\unyacat\AppData\Local\Temp\ccYuwk9t.s 			page 33


 134:Generated_Source\PSoC4/cyfitter_cfg.c ****     CY_CFG_Clock_Startup_ErrorCallback();
 135:Generated_Source\PSoC4/cyfitter_cfg.c **** #else
 136:Generated_Source\PSoC4/cyfitter_cfg.c ****     /*  If not using CY_CFG_CLOCK_STARTUP_ERROR_CALLBACK, place your clock startup code here. */
 137:Generated_Source\PSoC4/cyfitter_cfg.c ****     /* `#START CyClockStartupError` */
 138:Generated_Source\PSoC4/cyfitter_cfg.c **** 
 139:Generated_Source\PSoC4/cyfitter_cfg.c **** 
 140:Generated_Source\PSoC4/cyfitter_cfg.c **** 
 141:Generated_Source\PSoC4/cyfitter_cfg.c ****     /* `#END` */
 142:Generated_Source\PSoC4/cyfitter_cfg.c **** 
 143:Generated_Source\PSoC4/cyfitter_cfg.c ****     while(1) {}
 144:Generated_Source\PSoC4/cyfitter_cfg.c **** #endif /* CY_CFG_CLOCK_STARTUP_ERROR_CALLBACK */
 145:Generated_Source\PSoC4/cyfitter_cfg.c **** }
 146:Generated_Source\PSoC4/cyfitter_cfg.c **** #endif
 147:Generated_Source\PSoC4/cyfitter_cfg.c **** 
 148:Generated_Source\PSoC4/cyfitter_cfg.c **** 
 149:Generated_Source\PSoC4/cyfitter_cfg.c **** 
 150:Generated_Source\PSoC4/cyfitter_cfg.c **** /*******************************************************************************
 151:Generated_Source\PSoC4/cyfitter_cfg.c **** * Function Name: ClockSetup
 152:Generated_Source\PSoC4/cyfitter_cfg.c **** ********************************************************************************
 153:Generated_Source\PSoC4/cyfitter_cfg.c **** *
 154:Generated_Source\PSoC4/cyfitter_cfg.c **** * Summary:
 155:Generated_Source\PSoC4/cyfitter_cfg.c **** *   Performs the initialization of all of the clocks in the device based on the
 156:Generated_Source\PSoC4/cyfitter_cfg.c **** *   settings in the Clock tab of the DWR.  This includes enabling the requested
 157:Generated_Source\PSoC4/cyfitter_cfg.c **** *   clocks and setting the necessary dividers to produce the desired frequency. 
 158:Generated_Source\PSoC4/cyfitter_cfg.c **** *
 159:Generated_Source\PSoC4/cyfitter_cfg.c **** * Parameters:
 160:Generated_Source\PSoC4/cyfitter_cfg.c **** *   void
 161:Generated_Source\PSoC4/cyfitter_cfg.c **** *
 162:Generated_Source\PSoC4/cyfitter_cfg.c **** * Return:
 163:Generated_Source\PSoC4/cyfitter_cfg.c **** *   void
 164:Generated_Source\PSoC4/cyfitter_cfg.c **** *
 165:Generated_Source\PSoC4/cyfitter_cfg.c **** *******************************************************************************/
 166:Generated_Source\PSoC4/cyfitter_cfg.c **** static void ClockSetup(void);
 167:Generated_Source\PSoC4/cyfitter_cfg.c **** CY_CFG_SECTION
 168:Generated_Source\PSoC4/cyfitter_cfg.c **** static void ClockSetup(void)
 169:Generated_Source\PSoC4/cyfitter_cfg.c **** {
 170:Generated_Source\PSoC4/cyfitter_cfg.c **** 
 171:Generated_Source\PSoC4/cyfitter_cfg.c **** 	/* Set Flash Cycles based on max possible frequency in case a glitch occurs during ClockSetup(). *
 172:Generated_Source\PSoC4/cyfitter_cfg.c **** 	CY_SET_REG32((void CYXDATA *)(CYREG_CPUSS_FLASH_CTL), (0x0012u));
 173:Generated_Source\PSoC4/cyfitter_cfg.c **** 
 174:Generated_Source\PSoC4/cyfitter_cfg.c **** 	/* Start the WCO */
 175:Generated_Source\PSoC4/cyfitter_cfg.c **** 	CySysClkWcoStart();
 176:Generated_Source\PSoC4/cyfitter_cfg.c **** 	CyDelayCycles(12000000u); /* WCO may take up to 500ms to start */
 177:Generated_Source\PSoC4/cyfitter_cfg.c **** 	(void)CySysClkWcoSetPowerMode(CY_SYS_CLK_WCO_LPM);    /* Switch to the low power mode */
 178:Generated_Source\PSoC4/cyfitter_cfg.c **** 
 179:Generated_Source\PSoC4/cyfitter_cfg.c **** 	/* Setup and trim IMO based on desired frequency. */
 180:Generated_Source\PSoC4/cyfitter_cfg.c **** 	CySysClkWriteImoFreq(16u);
 181:Generated_Source\PSoC4/cyfitter_cfg.c **** 	/* CYDEV_CLK_ILO_CONFIG Starting address: CYDEV_CLK_ILO_CONFIG */
 182:Generated_Source\PSoC4/cyfitter_cfg.c **** 	CY_SET_REG32((void *)(CYREG_CLK_ILO_CONFIG), 0x80000006u);
 183:Generated_Source\PSoC4/cyfitter_cfg.c **** 
 184:Generated_Source\PSoC4/cyfitter_cfg.c **** 	/* CYDEV_WDT_CONFIG Starting address: CYDEV_WDT_CONFIG */
 185:Generated_Source\PSoC4/cyfitter_cfg.c **** 	CY_SET_REG32((void *)(CYREG_WDT_CONFIG), 0x40000000u);
 186:Generated_Source\PSoC4/cyfitter_cfg.c **** 
 187:Generated_Source\PSoC4/cyfitter_cfg.c **** 
 188:Generated_Source\PSoC4/cyfitter_cfg.c **** 	/* Enable fast start mode for XO */
 189:Generated_Source\PSoC4/cyfitter_cfg.c **** 	CY_SET_REG32((void*)CYREG_BLE_BLERD_BB_XO, CY_GET_REG32((void*)CYREG_BLE_BLERD_BB_XO) | (uint32)0x
 190:Generated_Source\PSoC4/cyfitter_cfg.c **** 	CY_SET_REG32((void *)(CYREG_BLE_BLERD_BB_XO_CAPTRIM), 0x00002D6Au);
ARM GAS  C:\Users\unyacat\AppData\Local\Temp\ccYuwk9t.s 			page 34


 191:Generated_Source\PSoC4/cyfitter_cfg.c **** 	/*Set XTAL(ECO) divider*/
 192:Generated_Source\PSoC4/cyfitter_cfg.c **** 	CY_SET_REG32((void *)(CYREG_BLE_BLESS_XTAL_CLK_DIV_CONFIG), 0x00000000u);
 193:Generated_Source\PSoC4/cyfitter_cfg.c **** 	/* Disable Crystal Stable Interrupt before enabling ECO */
 194:Generated_Source\PSoC4/cyfitter_cfg.c **** 	CY_SET_REG32((void*)CYREG_BLE_BLESS_LL_DSM_CTRL, CY_GET_REG32((void*)CYREG_BLE_BLESS_LL_DSM_CTRL) 
 195:Generated_Source\PSoC4/cyfitter_cfg.c **** 	/* Start the ECO and do not check status since it is not needed for HFCLK */
 196:Generated_Source\PSoC4/cyfitter_cfg.c **** 	(void)CySysClkEcoStart(2000u);
 197:Generated_Source\PSoC4/cyfitter_cfg.c **** 	CyDelayUs(1500u); /* Wait to stabilize */
 198:Generated_Source\PSoC4/cyfitter_cfg.c **** 
 199:Generated_Source\PSoC4/cyfitter_cfg.c **** 	/* Setup phase aligned clocks */
 200:Generated_Source\PSoC4/cyfitter_cfg.c **** 
 201:Generated_Source\PSoC4/cyfitter_cfg.c **** 	/* CYDEV_CLK_IMO_CONFIG Starting address: CYDEV_CLK_IMO_CONFIG */
 202:Generated_Source\PSoC4/cyfitter_cfg.c **** 	CY_SET_REG32((void *)(CYREG_CLK_IMO_CONFIG), 0x80000000u);
 203:Generated_Source\PSoC4/cyfitter_cfg.c **** 
 204:Generated_Source\PSoC4/cyfitter_cfg.c **** 	/* CYDEV_CLK_SELECT Starting address: CYDEV_CLK_SELECT */
 205:Generated_Source\PSoC4/cyfitter_cfg.c **** 	CY_SET_REG32((void *)(CYREG_CLK_SELECT), 0x00000000u);
 206:Generated_Source\PSoC4/cyfitter_cfg.c **** 
 207:Generated_Source\PSoC4/cyfitter_cfg.c **** 	CY_SET_REG32((void *)(CYREG_WDT_CONFIG), 0x40000000u);
 208:Generated_Source\PSoC4/cyfitter_cfg.c **** 	/* Set Flash Cycles based on newly configured 16.00MHz HFCLK. */
 209:Generated_Source\PSoC4/cyfitter_cfg.c **** 	CY_SET_REG32((void CYXDATA *)(CYREG_CPUSS_FLASH_CTL), (0x0000u));
 210:Generated_Source\PSoC4/cyfitter_cfg.c **** }
 211:Generated_Source\PSoC4/cyfitter_cfg.c **** 
 212:Generated_Source\PSoC4/cyfitter_cfg.c **** 
 213:Generated_Source\PSoC4/cyfitter_cfg.c **** /* Analog API Functions */
 214:Generated_Source\PSoC4/cyfitter_cfg.c **** 
 215:Generated_Source\PSoC4/cyfitter_cfg.c **** 
 216:Generated_Source\PSoC4/cyfitter_cfg.c **** /*******************************************************************************
 217:Generated_Source\PSoC4/cyfitter_cfg.c **** * Function Name: AnalogSetDefault
 218:Generated_Source\PSoC4/cyfitter_cfg.c **** ********************************************************************************
 219:Generated_Source\PSoC4/cyfitter_cfg.c **** *
 220:Generated_Source\PSoC4/cyfitter_cfg.c **** * Summary:
 221:Generated_Source\PSoC4/cyfitter_cfg.c **** *  Sets up the analog portions of the chip to default values based on chip
 222:Generated_Source\PSoC4/cyfitter_cfg.c **** *  configuration options from the project.
 223:Generated_Source\PSoC4/cyfitter_cfg.c **** *
 224:Generated_Source\PSoC4/cyfitter_cfg.c **** * Parameters:
 225:Generated_Source\PSoC4/cyfitter_cfg.c **** *  void
 226:Generated_Source\PSoC4/cyfitter_cfg.c **** *
 227:Generated_Source\PSoC4/cyfitter_cfg.c **** * Return:
 228:Generated_Source\PSoC4/cyfitter_cfg.c **** *  void
 229:Generated_Source\PSoC4/cyfitter_cfg.c **** *
 230:Generated_Source\PSoC4/cyfitter_cfg.c **** *******************************************************************************/
 231:Generated_Source\PSoC4/cyfitter_cfg.c **** static void AnalogSetDefault(void);
 232:Generated_Source\PSoC4/cyfitter_cfg.c **** static void AnalogSetDefault(void)
 233:Generated_Source\PSoC4/cyfitter_cfg.c **** {
 234:Generated_Source\PSoC4/cyfitter_cfg.c **** 	CY_SET_XTND_REG32((void CYFAR *)CYREG_CTBM0_DFT_CTRL, 0x00000003u);
 235:Generated_Source\PSoC4/cyfitter_cfg.c **** 	CY_SET_XTND_REG32((void CYFAR *)CYREG_CTBM1_DFT_CTRL, 0x00000003u);
 236:Generated_Source\PSoC4/cyfitter_cfg.c **** 	CY_SET_XTND_REG32((void CYFAR *)CYREG_PASS_DSAB_DSAB_CTRL, 0x00000000u);
 237:Generated_Source\PSoC4/cyfitter_cfg.c **** }
 238:Generated_Source\PSoC4/cyfitter_cfg.c **** 
 239:Generated_Source\PSoC4/cyfitter_cfg.c **** 
 240:Generated_Source\PSoC4/cyfitter_cfg.c **** 
 241:Generated_Source\PSoC4/cyfitter_cfg.c **** 
 242:Generated_Source\PSoC4/cyfitter_cfg.c **** /*******************************************************************************
 243:Generated_Source\PSoC4/cyfitter_cfg.c **** * Function Name: cyfitter_cfg
 244:Generated_Source\PSoC4/cyfitter_cfg.c **** ********************************************************************************
 245:Generated_Source\PSoC4/cyfitter_cfg.c **** * Summary:
 246:Generated_Source\PSoC4/cyfitter_cfg.c **** *  This function is called by the start-up code for the selected device. It
 247:Generated_Source\PSoC4/cyfitter_cfg.c **** *  performs all of the necessary device configuration based on the design
ARM GAS  C:\Users\unyacat\AppData\Local\Temp\ccYuwk9t.s 			page 35


 248:Generated_Source\PSoC4/cyfitter_cfg.c **** *  settings.  This includes settings from the Design Wide Resources (DWR) such
 249:Generated_Source\PSoC4/cyfitter_cfg.c **** *  as Clocks and Pins as well as any component configuration that is necessary.
 250:Generated_Source\PSoC4/cyfitter_cfg.c **** *
 251:Generated_Source\PSoC4/cyfitter_cfg.c **** * Parameters:
 252:Generated_Source\PSoC4/cyfitter_cfg.c **** *   void
 253:Generated_Source\PSoC4/cyfitter_cfg.c **** *
 254:Generated_Source\PSoC4/cyfitter_cfg.c **** * Return:
 255:Generated_Source\PSoC4/cyfitter_cfg.c **** *   void
 256:Generated_Source\PSoC4/cyfitter_cfg.c **** *
 257:Generated_Source\PSoC4/cyfitter_cfg.c **** *******************************************************************************/
 258:Generated_Source\PSoC4/cyfitter_cfg.c **** CY_CFG_SECTION
 259:Generated_Source\PSoC4/cyfitter_cfg.c **** void cyfitter_cfg(void)
 260:Generated_Source\PSoC4/cyfitter_cfg.c **** {
 428              		.loc 1 260 0
 429              		.cfi_startproc
 430              		@ args = 0, pretend = 0, frame = 0
 431              		@ frame_needed = 0, uses_anonymous_args = 0
 432 0000 F0B5     		push	{r4, r5, r6, r7, lr}
 433              		.cfi_def_cfa_offset 20
 434              		.cfi_offset 4, -20
 435              		.cfi_offset 5, -16
 436              		.cfi_offset 6, -12
 437              		.cfi_offset 7, -8
 438              		.cfi_offset 14, -4
 439 0002 4746     		mov	r7, r8
 440 0004 80B4     		push	{r7}
 441              		.cfi_def_cfa_offset 24
 442              		.cfi_offset 8, -24
 261:Generated_Source\PSoC4/cyfitter_cfg.c **** 	/* Disable interrupts by default. Let user enable if/when they want. */
 262:Generated_Source\PSoC4/cyfitter_cfg.c **** 	CyGlobalIntDisable;
 443              		.loc 1 262 0
 444              		.syntax divided
 445              	@ 262 "Generated_Source\PSoC4\cyfitter_cfg.c" 1
 446 0006 72B6     		CPSID   i
 447              	@ 0 "" 2
 448              		.thumb
 449              		.syntax unified
 450              	.LBB16:
 451              	.LBB17:
 452              	.LBB18:
 453              	.LBB19:
  76:Generated_Source\PSoC4/cyfitter_cfg.c **** }
 454              		.loc 1 76 0
 455 0008 8026     		movs	r6, #128
 456              	.LBE19:
 457              	.LBE18:
 458              	.LBE17:
 459              	.LBE16:
 263:Generated_Source\PSoC4/cyfitter_cfg.c **** 
 264:Generated_Source\PSoC4/cyfitter_cfg.c **** 	CY_SET_REG32((void *)(CYREG_BLE_BLESS_LL_DSM_CTRL), 0x00000000u);
 460              		.loc 1 264 0
 461 000a 0024     		movs	r4, #0
 462 000c 354D     		ldr	r5, .L2
 463              	.LBB26:
 464              	.LBB24:
 465              	.LBB22:
 466              	.LBB20:
ARM GAS  C:\Users\unyacat\AppData\Local\Temp\ccYuwk9t.s 			page 36


  76:Generated_Source\PSoC4/cyfitter_cfg.c **** }
 467              		.loc 1 76 0
 468 000e F600     		lsls	r6, r6, #3
 469              	.LBE20:
 470              	.LBE22:
 471              	.LBE24:
 472              	.LBE26:
 473              		.loc 1 264 0
 474 0010 2C60     		str	r4, [r5]
 475              	.LVL0:
 476              	.LBB27:
 477              	.LBB25:
 478              	.LBB23:
 479              	.LBB21:
  76:Generated_Source\PSoC4/cyfitter_cfg.c **** }
 480              		.loc 1 76 0
 481 0012 3200     		movs	r2, r6
 482 0014 0021     		movs	r1, #0
 483 0016 3448     		ldr	r0, .L2+4
 484 0018 FFF7FEFF 		bl	memset
 485              	.LVL1:
 486 001c 3200     		movs	r2, r6
 487 001e 0021     		movs	r1, #0
 488 0020 3248     		ldr	r0, .L2+8
 489 0022 FFF7FEFF 		bl	memset
 490              	.LVL2:
 491              	.LBE21:
 492              	.LBE23:
 493              	.LBE25:
 265:Generated_Source\PSoC4/cyfitter_cfg.c **** 
 266:Generated_Source\PSoC4/cyfitter_cfg.c **** 	{
 267:Generated_Source\PSoC4/cyfitter_cfg.c **** 
 268:Generated_Source\PSoC4/cyfitter_cfg.c **** 		CYPACKED typedef struct {
 269:Generated_Source\PSoC4/cyfitter_cfg.c **** 			void CYFAR *address;
 270:Generated_Source\PSoC4/cyfitter_cfg.c **** 			uint16 size;
 271:Generated_Source\PSoC4/cyfitter_cfg.c **** 		} CYPACKED_ATTR cfg_memset_t;
 272:Generated_Source\PSoC4/cyfitter_cfg.c **** 
 273:Generated_Source\PSoC4/cyfitter_cfg.c **** 		static const cfg_memset_t CYCODE cfg_memset_list[] = {
 274:Generated_Source\PSoC4/cyfitter_cfg.c **** 			/* address, size */
 275:Generated_Source\PSoC4/cyfitter_cfg.c **** 			{(void CYFAR *)(CYDEV_UDB_P0_U0_BASE), 1024u},
 276:Generated_Source\PSoC4/cyfitter_cfg.c **** 			{(void CYFAR *)(CYDEV_UDB_DSI0_BASE), 1024u},
 277:Generated_Source\PSoC4/cyfitter_cfg.c **** 		};
 278:Generated_Source\PSoC4/cyfitter_cfg.c **** 
 279:Generated_Source\PSoC4/cyfitter_cfg.c **** 		uint8 CYDATA i;
 280:Generated_Source\PSoC4/cyfitter_cfg.c **** 
 281:Generated_Source\PSoC4/cyfitter_cfg.c **** 		/* Zero out critical memory blocks before beginning configuration */
 282:Generated_Source\PSoC4/cyfitter_cfg.c **** 		for (i = 0u; i < (sizeof(cfg_memset_list)/sizeof(cfg_memset_list[0])); i++)
 283:Generated_Source\PSoC4/cyfitter_cfg.c **** 		{
 284:Generated_Source\PSoC4/cyfitter_cfg.c **** 			const cfg_memset_t CYCODE * CYDATA ms = &cfg_memset_list[i];
 285:Generated_Source\PSoC4/cyfitter_cfg.c **** 			CYMEMZERO(ms->address, (size_t)(uint32)(ms->size));
 286:Generated_Source\PSoC4/cyfitter_cfg.c **** 		}
 287:Generated_Source\PSoC4/cyfitter_cfg.c **** 
 288:Generated_Source\PSoC4/cyfitter_cfg.c **** 		/* HSIOM Starting address: CYDEV_HSIOM_BASE */
 289:Generated_Source\PSoC4/cyfitter_cfg.c **** 		CY_SET_REG32((void *)(CYDEV_HSIOM_BASE), 0xEE000000u);
 494              		.loc 1 289 0
 495 0026 EE22     		movs	r2, #238
 496 0028 314B     		ldr	r3, .L2+12
ARM GAS  C:\Users\unyacat\AppData\Local\Temp\ccYuwk9t.s 			page 37


 497 002a 1206     		lsls	r2, r2, #24
 498 002c 1A60     		str	r2, [r3]
 290:Generated_Source\PSoC4/cyfitter_cfg.c **** 
 291:Generated_Source\PSoC4/cyfitter_cfg.c **** 		/* UDB_PA_0 Starting address: CYDEV_UDB_PA0_BASE */
 292:Generated_Source\PSoC4/cyfitter_cfg.c **** 		CY_SET_REG32((void *)(CYDEV_UDB_PA0_BASE), 0x00990000u);
 499              		.loc 1 292 0
 500 002e 9923     		movs	r3, #153
 501 0030 304A     		ldr	r2, .L2+16
 502 0032 1B04     		lsls	r3, r3, #16
 503 0034 1360     		str	r3, [r2]
 293:Generated_Source\PSoC4/cyfitter_cfg.c **** 
 294:Generated_Source\PSoC4/cyfitter_cfg.c **** 		/* UDB_PA_3 Starting address: CYDEV_UDB_PA3_BASE */
 295:Generated_Source\PSoC4/cyfitter_cfg.c **** 		CY_SET_REG32((void *)(CYDEV_UDB_PA3_BASE), 0x00990000u);
 504              		.loc 1 295 0
 505 0036 304A     		ldr	r2, .L2+20
 506              	.LBE27:
 507              	.LBB28:
 508              	.LBB29:
 172:Generated_Source\PSoC4/cyfitter_cfg.c **** 
 509              		.loc 1 172 0
 510 0038 304E     		ldr	r6, .L2+24
 511              	.LBE29:
 512              	.LBE28:
 513              	.LBB34:
 514              		.loc 1 295 0
 515 003a 1360     		str	r3, [r2]
 296:Generated_Source\PSoC4/cyfitter_cfg.c **** 
 297:Generated_Source\PSoC4/cyfitter_cfg.c **** 		/* Enable digital routing */
 298:Generated_Source\PSoC4/cyfitter_cfg.c **** 		CY_SET_XTND_REG8((void *)CYREG_UDB_UDBIF_BANK_CTL, (uint8)(CY_GET_XTND_REG8((void *)CYREG_UDB_UDB
 516              		.loc 1 298 0
 517 003c 0623     		movs	r3, #6
 518 003e 304A     		ldr	r2, .L2+28
 519              	.LBE34:
 520              	.LBB35:
 521              	.LBB30:
 185:Generated_Source\PSoC4/cyfitter_cfg.c **** 
 522              		.loc 1 185 0
 523 0040 304F     		ldr	r7, .L2+32
 524              	.LBE30:
 525              	.LBE35:
 526              	.LBB36:
 527              		.loc 1 298 0
 528 0042 1178     		ldrb	r1, [r2]
 529              	.LBE36:
 299:Generated_Source\PSoC4/cyfitter_cfg.c **** 	}
 300:Generated_Source\PSoC4/cyfitter_cfg.c **** 
 301:Generated_Source\PSoC4/cyfitter_cfg.c **** 	/* Perform second pass device configuration. These items must be configured in specific order afte
 302:Generated_Source\PSoC4/cyfitter_cfg.c **** 	/* IOPINS0_0 Starting address: CYDEV_GPIO_PRT0_BASE */
 303:Generated_Source\PSoC4/cyfitter_cfg.c **** 	CY_SET_REG32((void *)(CYDEV_GPIO_PRT0_BASE), 0x00000030u);
 304:Generated_Source\PSoC4/cyfitter_cfg.c **** 	CY_SET_REG32((void *)(CYREG_GPIO_PRT0_PC), 0x00DB2000u);
 305:Generated_Source\PSoC4/cyfitter_cfg.c **** 	CY_SET_REG32((void *)(CYREG_GPIO_PRT0_INTR_CFG), 0x00000100u);
 306:Generated_Source\PSoC4/cyfitter_cfg.c **** 
 307:Generated_Source\PSoC4/cyfitter_cfg.c **** 	/* IOPINS0_3 Starting address: CYDEV_GPIO_PRT3_BASE */
 308:Generated_Source\PSoC4/cyfitter_cfg.c **** 	CY_SET_REG32((void *)(CYDEV_GPIO_PRT3_BASE), 0x00000040u);
 309:Generated_Source\PSoC4/cyfitter_cfg.c **** 	CY_SET_REG32((void *)(CYREG_GPIO_PRT3_PC), 0x00180000u);
 310:Generated_Source\PSoC4/cyfitter_cfg.c **** 
 311:Generated_Source\PSoC4/cyfitter_cfg.c **** 
ARM GAS  C:\Users\unyacat\AppData\Local\Temp\ccYuwk9t.s 			page 38


 312:Generated_Source\PSoC4/cyfitter_cfg.c **** 	/* Setup clocks based on selections from Clock DWR */
 313:Generated_Source\PSoC4/cyfitter_cfg.c **** 	ClockSetup();
 314:Generated_Source\PSoC4/cyfitter_cfg.c **** 
 315:Generated_Source\PSoC4/cyfitter_cfg.c **** 	/* Perform basic analog initialization to defaults */
 316:Generated_Source\PSoC4/cyfitter_cfg.c **** 	AnalogSetDefault();
 317:Generated_Source\PSoC4/cyfitter_cfg.c **** 
 318:Generated_Source\PSoC4/cyfitter_cfg.c **** }
 530              		.loc 1 318 0
 531              		@ sp needed
 532              	.LBB37:
 298:Generated_Source\PSoC4/cyfitter_cfg.c **** 	}
 533              		.loc 1 298 0
 534 0044 0B43     		orrs	r3, r1
 535 0046 1370     		strb	r3, [r2]
 536              	.LBE37:
 303:Generated_Source\PSoC4/cyfitter_cfg.c **** 	CY_SET_REG32((void *)(CYREG_GPIO_PRT0_PC), 0x00DB2000u);
 537              		.loc 1 303 0
 538 0048 3022     		movs	r2, #48
 539 004a 2F4B     		ldr	r3, .L2+36
 540 004c 1A60     		str	r2, [r3]
 304:Generated_Source\PSoC4/cyfitter_cfg.c **** 	CY_SET_REG32((void *)(CYREG_GPIO_PRT0_INTR_CFG), 0x00000100u);
 541              		.loc 1 304 0
 542 004e 2F4A     		ldr	r2, .L2+40
 543 0050 2F4B     		ldr	r3, .L2+44
 544 0052 1A60     		str	r2, [r3]
 305:Generated_Source\PSoC4/cyfitter_cfg.c **** 
 545              		.loc 1 305 0
 546 0054 8022     		movs	r2, #128
 547 0056 2F4B     		ldr	r3, .L2+48
 548 0058 5200     		lsls	r2, r2, #1
 549 005a 1A60     		str	r2, [r3]
 308:Generated_Source\PSoC4/cyfitter_cfg.c **** 	CY_SET_REG32((void *)(CYREG_GPIO_PRT3_PC), 0x00180000u);
 550              		.loc 1 308 0
 551 005c 2E4B     		ldr	r3, .L2+52
 552 005e C03A     		subs	r2, r2, #192
 553 0060 1A60     		str	r2, [r3]
 309:Generated_Source\PSoC4/cyfitter_cfg.c **** 
 554              		.loc 1 309 0
 555 0062 C022     		movs	r2, #192
 556 0064 2D4B     		ldr	r3, .L2+56
 557 0066 5203     		lsls	r2, r2, #13
 558 0068 1A60     		str	r2, [r3]
 559              	.LBB38:
 560              	.LBB31:
 172:Generated_Source\PSoC4/cyfitter_cfg.c **** 
 561              		.loc 1 172 0
 562 006a 1223     		movs	r3, #18
 563 006c 3360     		str	r3, [r6]
 175:Generated_Source\PSoC4/cyfitter_cfg.c **** 	CyDelayCycles(12000000u); /* WCO may take up to 500ms to start */
 564              		.loc 1 175 0
 565 006e FFF7FEFF 		bl	CySysClkWcoStart
 566              	.LVL3:
 176:Generated_Source\PSoC4/cyfitter_cfg.c **** 	(void)CySysClkWcoSetPowerMode(CY_SYS_CLK_WCO_LPM);    /* Switch to the low power mode */
 567              		.loc 1 176 0
 568 0072 2B48     		ldr	r0, .L2+60
 569 0074 FFF7FEFF 		bl	CyDelayCycles
 570              	.LVL4:
ARM GAS  C:\Users\unyacat\AppData\Local\Temp\ccYuwk9t.s 			page 39


 177:Generated_Source\PSoC4/cyfitter_cfg.c **** 
 571              		.loc 1 177 0
 572 0078 0120     		movs	r0, #1
 573 007a FFF7FEFF 		bl	CySysClkWcoSetPowerMode
 574              	.LVL5:
 180:Generated_Source\PSoC4/cyfitter_cfg.c **** 	/* CYDEV_CLK_ILO_CONFIG Starting address: CYDEV_CLK_ILO_CONFIG */
 575              		.loc 1 180 0
 576 007e 1020     		movs	r0, #16
 577 0080 FFF7FEFF 		bl	CySysClkWriteImoFreq
 578              	.LVL6:
 182:Generated_Source\PSoC4/cyfitter_cfg.c **** 
 579              		.loc 1 182 0
 580 0084 274A     		ldr	r2, .L2+64
 581 0086 284B     		ldr	r3, .L2+68
 196:Generated_Source\PSoC4/cyfitter_cfg.c **** 	CyDelayUs(1500u); /* Wait to stabilize */
 582              		.loc 1 196 0
 583 0088 FA20     		movs	r0, #250
 182:Generated_Source\PSoC4/cyfitter_cfg.c **** 
 584              		.loc 1 182 0
 585 008a 1A60     		str	r2, [r3]
 185:Generated_Source\PSoC4/cyfitter_cfg.c **** 
 586              		.loc 1 185 0
 587 008c 8023     		movs	r3, #128
 588 008e DB05     		lsls	r3, r3, #23
 589 0090 3B60     		str	r3, [r7]
 590 0092 9846     		mov	r8, r3
 189:Generated_Source\PSoC4/cyfitter_cfg.c **** 	CY_SET_REG32((void *)(CYREG_BLE_BLERD_BB_XO_CAPTRIM), 0x00002D6Au);
 591              		.loc 1 189 0
 592 0094 0223     		movs	r3, #2
 593 0096 254A     		ldr	r2, .L2+72
 196:Generated_Source\PSoC4/cyfitter_cfg.c **** 	CyDelayUs(1500u); /* Wait to stabilize */
 594              		.loc 1 196 0
 595 0098 C000     		lsls	r0, r0, #3
 189:Generated_Source\PSoC4/cyfitter_cfg.c **** 	CY_SET_REG32((void *)(CYREG_BLE_BLERD_BB_XO_CAPTRIM), 0x00002D6Au);
 596              		.loc 1 189 0
 597 009a 1168     		ldr	r1, [r2]
 598 009c 0B43     		orrs	r3, r1
 599 009e 1360     		str	r3, [r2]
 190:Generated_Source\PSoC4/cyfitter_cfg.c **** 	/*Set XTAL(ECO) divider*/
 600              		.loc 1 190 0
 601 00a0 234A     		ldr	r2, .L2+76
 602 00a2 244B     		ldr	r3, .L2+80
 603 00a4 1A60     		str	r2, [r3]
 194:Generated_Source\PSoC4/cyfitter_cfg.c **** 	/* Start the ECO and do not check status since it is not needed for HFCLK */
 604              		.loc 1 194 0
 605 00a6 0822     		movs	r2, #8
 192:Generated_Source\PSoC4/cyfitter_cfg.c **** 	/* Disable Crystal Stable Interrupt before enabling ECO */
 606              		.loc 1 192 0
 607 00a8 234B     		ldr	r3, .L2+84
 608 00aa 1C60     		str	r4, [r3]
 194:Generated_Source\PSoC4/cyfitter_cfg.c **** 	/* Start the ECO and do not check status since it is not needed for HFCLK */
 609              		.loc 1 194 0
 610 00ac 2B68     		ldr	r3, [r5]
 611 00ae 9343     		bics	r3, r2
 612 00b0 2B60     		str	r3, [r5]
 196:Generated_Source\PSoC4/cyfitter_cfg.c **** 	CyDelayUs(1500u); /* Wait to stabilize */
 613              		.loc 1 196 0
ARM GAS  C:\Users\unyacat\AppData\Local\Temp\ccYuwk9t.s 			page 40


 614 00b2 FFF7FEFF 		bl	CySysClkEcoStart
 615              	.LVL7:
 197:Generated_Source\PSoC4/cyfitter_cfg.c **** 
 616              		.loc 1 197 0
 617 00b6 2148     		ldr	r0, .L2+88
 618 00b8 FFF7FEFF 		bl	CyDelayUs
 619              	.LVL8:
 202:Generated_Source\PSoC4/cyfitter_cfg.c **** 
 620              		.loc 1 202 0
 621 00bc 8022     		movs	r2, #128
 622 00be 204B     		ldr	r3, .L2+92
 623 00c0 1206     		lsls	r2, r2, #24
 624 00c2 1A60     		str	r2, [r3]
 205:Generated_Source\PSoC4/cyfitter_cfg.c **** 
 625              		.loc 1 205 0
 626 00c4 1F4B     		ldr	r3, .L2+96
 627              	.LBE31:
 628              	.LBE38:
 629              	.LBB39:
 630              	.LBB40:
 234:Generated_Source\PSoC4/cyfitter_cfg.c **** 	CY_SET_XTND_REG32((void CYFAR *)CYREG_CTBM1_DFT_CTRL, 0x00000003u);
 631              		.loc 1 234 0
 632 00c6 204A     		ldr	r2, .L2+100
 633              	.LBE40:
 634              	.LBE39:
 635              	.LBB43:
 636              	.LBB32:
 205:Generated_Source\PSoC4/cyfitter_cfg.c **** 
 637              		.loc 1 205 0
 638 00c8 1C60     		str	r4, [r3]
 207:Generated_Source\PSoC4/cyfitter_cfg.c **** 	/* Set Flash Cycles based on newly configured 16.00MHz HFCLK. */
 639              		.loc 1 207 0
 640 00ca 4346     		mov	r3, r8
 641 00cc 3B60     		str	r3, [r7]
 642              	.LBE32:
 643              	.LBE43:
 644              	.LBB44:
 645              	.LBB41:
 234:Generated_Source\PSoC4/cyfitter_cfg.c **** 	CY_SET_XTND_REG32((void CYFAR *)CYREG_CTBM1_DFT_CTRL, 0x00000003u);
 646              		.loc 1 234 0
 647 00ce 0323     		movs	r3, #3
 648              	.LBE41:
 649              	.LBE44:
 650              	.LBB45:
 651              	.LBB33:
 209:Generated_Source\PSoC4/cyfitter_cfg.c **** }
 652              		.loc 1 209 0
 653 00d0 3460     		str	r4, [r6]
 654              	.LBE33:
 655              	.LBE45:
 656              	.LBB46:
 657              	.LBB42:
 234:Generated_Source\PSoC4/cyfitter_cfg.c **** 	CY_SET_XTND_REG32((void CYFAR *)CYREG_CTBM1_DFT_CTRL, 0x00000003u);
 658              		.loc 1 234 0
 659 00d2 1360     		str	r3, [r2]
 235:Generated_Source\PSoC4/cyfitter_cfg.c **** 	CY_SET_XTND_REG32((void CYFAR *)CYREG_PASS_DSAB_DSAB_CTRL, 0x00000000u);
 660              		.loc 1 235 0
ARM GAS  C:\Users\unyacat\AppData\Local\Temp\ccYuwk9t.s 			page 41


 661 00d4 1D4A     		ldr	r2, .L2+104
 662 00d6 1360     		str	r3, [r2]
 236:Generated_Source\PSoC4/cyfitter_cfg.c **** }
 663              		.loc 1 236 0
 664 00d8 1D4B     		ldr	r3, .L2+108
 665 00da 1C60     		str	r4, [r3]
 666              	.LBE42:
 667              	.LBE46:
 668              		.loc 1 318 0
 669 00dc 04BC     		pop	{r2}
 670 00de 9046     		mov	r8, r2
 671 00e0 F0BD     		pop	{r4, r5, r6, r7, pc}
 672              	.L3:
 673 00e2 C046     		.align	2
 674              	.L2:
 675 00e4 6CF02E40 		.word	1076818028
 676 00e8 00300F40 		.word	1074737152
 677 00ec 00400F40 		.word	1074741248
 678 00f0 00000240 		.word	1073872896
 679 00f4 00500F40 		.word	1074745344
 680 00f8 30500F40 		.word	1074745392
 681 00fc 30001040 		.word	1074790448
 682 0100 00700F40 		.word	1074753536
 683 0104 0C020B40 		.word	1074463244
 684 0108 00000440 		.word	1074003968
 685 010c 0020DB00 		.word	14360576
 686 0110 08000440 		.word	1074003976
 687 0114 0C000440 		.word	1074003980
 688 0118 00030440 		.word	1074004736
 689 011c 08030440 		.word	1074004744
 690 0120 001BB700 		.word	12000000
 691 0124 06000080 		.word	-2147483642
 692 0128 04010B40 		.word	1074462980
 693 012c 78002E40 		.word	1076756600
 694 0130 6A2D0000 		.word	11626
 695 0134 7C002E40 		.word	1076756604
 696 0138 64F02E40 		.word	1076818020
 697 013c DC050000 		.word	1500
 698 0140 08010B40 		.word	1074462984
 699 0144 00010B40 		.word	1074462976
 700 0148 30003040 		.word	1076887600
 701 014c 30003140 		.word	1076953136
 702 0150 000E3F40 		.word	1077874176
 703              		.cfi_endproc
 704              	.LFE7:
 705              		.size	cyfitter_cfg, .-cyfitter_cfg
 706              		.text
 707              	.Letext0:
 708              		.file 2 "c:\\program files (x86)\\cypress\\psoc creator\\4.4\\psoc creator\\import\\gnu\\arm\\5.4.
 709              		.file 3 "Generated_Source\\PSoC4\\cytypes.h"
 710              		.file 4 "Generated_Source\\PSoC4\\CyLFClk.h"
 711              		.file 5 "Generated_Source\\PSoC4\\CyLib.h"