ARM GAS  C:\Users\unyacat\AppData\Local\Temp\ccVMOIUr.s 			page 1


   1              		.syntax unified
   2              		.cpu cortex-m0
   3              		.fpu softvfp
   4              		.eabi_attribute 20, 1
   5              		.eabi_attribute 21, 1
   6              		.eabi_attribute 23, 3
   7              		.eabi_attribute 24, 1
   8              		.eabi_attribute 25, 1
   9              		.eabi_attribute 26, 1
  10              		.eabi_attribute 30, 2
  11              		.eabi_attribute 34, 0
  12              		.eabi_attribute 18, 4
  13              		.thumb
  14              		.syntax unified
  15              		.file	"cyPm.c"
  16              		.text
  17              	.Ltext0:
  18              		.section	.gnu.lto_.profile.9235892d,"",%progbits
  19 0000 789C6361 		.ascii	"x\234ca`d`c`\000\222K\230\372\031\001\004I\001C"
  19      60646063 
  19      6000924B 
  19      98FA1901 
  19      04490143 
  20              		.text
  21              		.section	.gnu.lto_.icf.9235892d,"",%progbits
  22 0000 789C6361 		.ascii	"x\234ca`d\000\001\013\006\004\340d\2307ig\033\017c\343"
  22      60640001 
  22      0B0604E0 
  22      64983769 
  22      671B0F63 
  23 0015 84052D5C 		.ascii	"\204\005-\\L'\336\235~\315\313|\354\357\307\251,,s;"
  23      4C27DE9D 
  23      7ECDCB7C 
  23      ECEFC7A9 
  23      2C2C733B 
  24 0029 EF4C6064 		.ascii	"\357L`d\275\325\361n1\027\333\363\255\233n2\261\337"
  24      BDD5F16E 
  24      3117DBF3 
  24      AD9B6E32 
  24      B1DF
  25 003b FE76AE99 		.ascii	"\376v\256\231\237c\312\216\331\333\230\031\000\355\006"
  25      9F63CA8E 
  25      D9DB9819 
  25      00ED06
  26 004a 1A75     		.ascii	"\032u"
  27              		.text
  28              		.section	.gnu.lto_.jmpfuncs.9235892d,"",%progbits
  29 0000 789C6361 		.ascii	"x\234ca`d\000\201p\006\004\340\004b\240(\023\210\315"
  29      60640081 
  29      700604E0 
  29      0462A028 
  29      1388CD
  30 0013 04A19918 		.ascii	"\004\241\231\030\37721\356\231\337\263\222\353\013S"
  30      FF3231EE 
  30      99DFB392 
  30      EB0B53
  31 0022 2B330323 		.ascii	"+3\003#\023\343rF\031\24083T\031\003\013##c=\230\311"
ARM GAS  C:\Users\unyacat\AppData\Local\Temp\ccVMOIUr.s 			page 2


  31      13E37246 
  31      19A03833 
  31      5419030B 
  31      2323633D 
  32 0038 CAC0C006 		.ascii	"\312\300\300\006\025e\007\021\0340%\000\233\304\006"
  32      15650711 
  32      1C302500 
  32      9BC406
  33 0047 FB       		.ascii	"\373"
  34              		.text
  35              		.section	.gnu.lto_.inline.9235892d,"",%progbits
  36 0000 789C6361 		.ascii	"x\234ca`d\000\001g\010\005\006\234\014\014\022\342\214"
  36      60640001 
  36      67080506 
  36      9C0C0C12 
  36      E28C
  37 0012 0C4C5A13 		.ascii	"\014LZ\023N01\260-\220g\002\01122\360\310\002\305\270"
  37      4E3031B0 
  37      2D906702 
  37      093232F0 
  37      C802C5B8 
  38 0026 26F8C185 		.ascii	"&\370\301\205\230\270\201\302\023\374@\024\003\023\213"
  38      98B881C2 
  38      13FC4014 
  38      03138B
  39 0035 B821505A 		.ascii	"\270!PZ\346\301-Fl\362\214`\016\0033\203\230\001\016"
  39      E6C12D46 
  39      6CF28C60 
  39      0E033383 
  39      98010E
  40 0048 558C5C50 		.ascii	"U\214\\P6\003\013\003\237,#3\203B\366_&\306\365ov\376"
  40      36030B03 
  40      9F2C2333 
  40      8342F65F 
  40      26C6F56F 
  41 005e E4FDC2D4 		.ascii	"\344\375\302\324\312\314\310\310\300\270\234Q\206\201"
  41      CACCC8C8 
  41      C0B89C51 
  41      8681
  42 006c 41210B4A 		.ascii	"A!\013J\003\035\314\312t\201\037b\016\313\002y\001\006"
  42      031DCCCA 
  42      74811F62 
  42      0ECB0279 
  42      0106
  43 007e 960E610E 		.ascii	"\226\016a\016\006\226\031<,\350\216ce\340\345\000Z+"
  43      0696193C 
  43      2CE88E63 
  43      65E0E500 
  43      5A2B
  44 0090 F220166E 		.ascii	"\362 \026n+\033\203\260\"PH\342A\027V\3672\2603\010"
  44      2B1B83B0 
  44      225048E2 
  44      411756F7 
  44      32B03308 
  45 00a4 2903E5A5 		.ascii	")\003\345\245&\234F\310\203\235\010&8\030\004@\272\205"
  45      269C46C8 
  45      839D0826 
ARM GAS  C:\Users\unyacat\AppData\Local\Temp\ccVMOIUr.s 			page 3


  45      38180440 
  45      BA85
  46 00b6 2EF460D7 		.ascii	".\364`\327\315\000\000\215d&\324"
  46      CD00008D 
  46      6426D4
  47              		.text
  48              		.section	.gnu.lto_.pureconst.9235892d,"",%progbits
  49 0000 789C6361 		.ascii	"x\234ca`d\020g``\340d\220b\334\305\310\264\213\221y"
  49      60641067 
  49      6060E064 
  49      9062DCC5 
  49      C8B48B91 
  50 0015 17238B14 		.ascii	"\027#\213\024\253\024\233\024\373.F\016)\000/\256\003"
  50      AB149B14 
  50      FB2E460E 
  50      29002FAE 
  50      03
  51 0026 B8       		.ascii	"\270"
  52              		.text
  53              		.section	.gnu.lto_CySysPmHibPinsDisableInputBuf.9235892d,"",%progbits
  54 0000 789C6D94 		.ascii	"x\234m\224Kh\023Q\024\206\357\2713\223&&mhlP\260H\267"
  54      4B681351 
  54      1486EFB9 
  54      33932626 
  54      6D686C50 
  55 0017 DDB872AB 		.ascii	"\335\270r\253.\\\270-\355\266 R\003n\264Pt\321U'/\215"
  55      2E5CB82D 
  55      EDB62052 
  55      036EB450 
  55      74D15527 
  56 002d A548545A 		.ascii	"\245HTZ\210(\001Aj\255\032clkm\25315\276\300\012qQW"
  56      88280141 
  56      6AAD1A63 
  56      6C6B6DAB 
  56      3135BEC0 
  57 0045 5A1423D1 		.ascii	"Z\024#\321M\255\017\304\332\304s\346^n\342d\006\362"
  57      4DAD0FC4 
  57      DAC473E6 
  57      5E6EE264 
  57      06F2
  58 0057 4F1EF77C 		.ascii	"O\036\367|\377\227\013su\006\214\256\355\006c]x\337"
  58      FF970B73 
  58      75068CAE 
  58      ED06635D 
  58      78DF
  59 0069 852FD018 		.ascii	"\205/\320\030\360\344\012ca7\007\2407\246\033\330\010"
  59      F0E40A63 
  59      613707A0 
  59      37A61BD8 
  59      08
  60 007a 8711F8C9 		.ascii	"\207\021\370\311\2678\024\316\224\347y\367\244\211\327"
  60      B73814CE 
  60      94E779F7 
  60      A489D7
  61 0089 DAA78DE1 		.ascii	"\332\247\215\341\250\031\337\031\327\030\253q\213\304"
  61      A819DF19 
  61      D718AB71 
ARM GAS  C:\Users\unyacat\AppData\Local\Temp\ccVMOIUr.s 			page 4


  61      8BC4
  62 0097 6012BA19 		.ascii	"`\022\272\031.\373\220\255\216\267\272b\264\254K\374"
  62      2EFB90AD 
  62      8EB7BA62 
  62      B4AC4BFC 
  63 00a7 08D7C145 		.ascii	"\010\327\301Eu\231\336\274Y\253E\315|\312\237J\344\370"
  63      7599DEBC 
  63      59AB45CD 
  63      7CCA9F4A 
  63      E4F8
  64 00b9 0ECEE21A 		.ascii	"\016\316\342\032\226b\030\024.\0127\205\207\302K\341"
  64      96621814 
  64      2E0A3785 
  64      87C24BE1 
  65 00c9 A368A3F0 		.ascii	"\243h\243\360S\264S\004(:(\202\024\214\255c\011\351"
  65      53B45304 
  65      283A2882 
  65      148CAD63 
  65      09E9
  66 00db 7EE39CEE 		.ascii	"~\343\234\356Z\031\012\177F\177-\366RoT#\365\211x\341"
  66      5A190A7F 
  66      467F2DF6 
  66      526F5423 
  66      F58978E1 
  67 00ef 75CB0F1E 		.ascii	"u\313\017\036\3278\220\342Teu\251U|L\230IS\307\257J"
  67      D73890E2 
  67      546575A9 
  67      557C4C98 
  67      4953C7AF 
  68 0104 EF16DE6B 		.ascii	"\357\026\336ki\270\022\216A\\\323\340\006t\302\024t"
  68      69B8128E 
  68      415CD3E0 
  68      0674C214 
  68      74
  69 0115 A2FB34A4 		.ascii	"\242\3734\244\201\225!\372\327%p\232 F\212/*nB\000\324"
  69      819521FA 
  69      D725709A 
  69      20468A2F 
  69      2A6E4200 
  70 012a F0D2E026 		.ascii	"\360\322\340&\256\306\342\011\240e\215\225\372\377\225"
  70      AEC6E209 
  70      A0658D95 
  70      FAFF95
  71 0139 BA73A501 		.ascii	"\272s\245\001\267\261\362\226U\231\301J,b\326\377(\355"
  71      B7B1F296 
  71      5599C14A 
  71      2C62D6FF 
  71      28ED
  72 014b 13BD064E 		.ascii	"\023\275\006N\344\316\225\252^\351\035\021\220\257\327"
  72      E4CE95AA 
  72      5EE91D11 
  72      90AFD7
  73 015a 569EB7D4 		.ascii	"V\236\267\324\275\357(\357\254\315\233\020M\222\012"
  73      BDEF28EF 
  73      ACCD9B10 
  73      4D920A
  74 0169 A83B030D 		.ascii	"\250;\003\015\270\253\254r\226\225KXmH+7N\314-\207?"
ARM GAS  C:\Users\unyacat\AppData\Local\Temp\ccVMOIUr.s 			page 5


  74      B8ABAC72 
  74      96954B58 
  74      6D482B37 
  74      4ECC2D87 
  75 017e 73691513 		.ascii	"si\025\023\220\344\357\254\251\327\255\356)\253\031"
  75      90E4EFAC 
  75      A9D7ADEE 
  75      29AB19
  76 018d 9B950711 		.ascii	"\233\225\007\021MV\012\250;\003\015\230UVs\226\225G"
  76      4D560AA8 
  76      3B030D98 
  76      55567396 
  76      9547
  77 019f EED57E41 		.ascii	"\356\325~A\365\342\304\326l\346\3226iuZ@f\256\236\037"
  77      F5E2C4D6 
  77      6CE6D236 
  77      69755A40 
  77      66AE9E1F 
  78 01b3 87BAD57D 		.ascii	"\207\272\325}e5o\263\362!\242\311J\001ug\240\001\017"
  78      65356FB3 
  78      F221A2C9 
  78      4A017567 
  78      A0010F
  79 01c6 94D58265 		.ascii	"\224\325\202e\345\223{%\255\332pb\365c1\255K\253\204"
  79      E5937B25 
  79      ADDA7062 
  79      F56331AD 
  79      4BAB84
  80 01d9 80BC8A56 		.ascii	"\200\274\212V/\272\352V\213\312j\311f\345GD\223\225"
  80      2FBAEA56 
  80      8BCA6AC9 
  80      66E54744 
  80      9395
  81 01eb 02EACE40 		.ascii	"\002\352\316@\003\036*\253G\226\225_\356\325\001Am\307"
  81      031E2AAB 
  81      4796955F 
  81      EED50141 
  81      6DC7
  82 01fd 89B570E5 		.ascii	"\211\265p\345\202GZ\215\012\310\330\346\333\313\015"
  82      82475A8D 
  82      0AC8D8E6 
  82      DBCB0D
  83 020c CF435E59 		.ascii	"\317C^Y=\266Y\005\020\321d\245\200\2723\320\200\202"
  83      3DB65905 
  83      10D164A5 
  83      80BA33D0 
  83      8082
  84 021e B25AB6AC 		.ascii	"\262Z\266\254\002r\257\244U\007N\234\375\376r\332'\255"
  84      0272AFA4 
  84      55074E9C 
  84      FDFE72DA 
  84      27AD
  85 0230 C604A462 		.ascii	"\306\004\244b\232\233\015{\365DY\025mVAD4Y)\240\356"
  85      9A9B0D7B 
  85      F5445915 
  85      6D564144 
  85      345929A0 
ARM GAS  C:\Users\unyacat\AppData\Local\Temp\ccVMOIUr.s 			page 6


  86 0245 0C34E0A9 		.ascii	"\0144\340\251\262zfY\005\331\027\210\344So|D\260N\271"
  86      B27A6659 
  86      05D91788 
  86      E4536F7C 
  86      44B04EB9 
  87 0259 753C41F0 		.ascii	"u<A\360\214\301\023g\367\241\320\211\320\320\221\223"
  87      8CC11367 
  87      F7A1D089 
  87      D0D09193 
  88 0269 A1A387FB 		.ascii	"\241\243\207\373\006O\015\015\204\372{\372\006\017\356"
  88      064F0D0D 
  88      84FA7BFA 
  88      060FEE
  89 0278 ED1F18EE 		.ascii	"\355\037\030\3569\276\347\030\373\007\227~\256\254"
  89      39BEE718 
  89      FB07977E 
  89      AEAC
  90              		.text
  91              		.section	.gnu.lto_CySysPmSleep.9235892d,"",%progbits
  92 0000 789C7D90 		.ascii	"x\234}\220\315K\033Q\024\305\357y/3\011bM7]\031$.\\"
  92      CD4B1B51 
  92      14C5EF79 
  92      2F330962 
  92      4D375D19 
  93 0017 B82982D2 		.ascii	"\270)\202\322\177@h\351N\314\242\233@\221t\026]\370"
  93      7F4068E9 
  93      4ECCA29B 
  93      40917416 
  93      5DF8
  94 0029 41888BAE 		.ascii	"A\210\213\256\362\342\314\240u\025\024\315B$\320P\222"
  94      F2E2CCA0 
  94      751514CD 
  94      4224D050 
  94      92
  95 003a 561BCDC6 		.ascii	"V\033\315\306\032A\030\"\270\264\373\224\202H\261\""
  95      1A411822 
  95      B8B4FB94 
  95      8248B122 
  96 004a 222A75D1 		.ascii	"\"*u\321\252\235\3367\203\253B\037\274\271o.\347\374"
  96      AA9DDE37 
  96      83AB421F 
  96      BCB96F2E 
  96      E7FC
  97 005c EE478440 		.ascii	"\356G\204@\372\234sx\302\261\233/$A\024\017\210\012"
  97      FA9C7378 
  97      C2B19B2F 
  97      2441140F 
  97      880A
  98 006e 3101E887 		.ascii	"1\001\350\207\212\201\362\002y\\\213;\201\326\354qS"
  98      8A81F202 
  98      795C8B3B 
  98      81D6EC71 
  98      53
  99 007f F457159F 		.ascii	"\364W\025\237\303\367\013R\325<\270\222\310\027\001"
  99      C3F70B52 
  99      D53CB892 
  99      C81701
ARM GAS  C:\Users\unyacat\AppData\Local\Temp\ccVMOIUr.s 			page 7


 100 008e 8950453F 		.ascii	"\211PE?\261l\361\352\333\266){\241\337\355z\321\351"
 100      B16CF1EA 
 100      DBB6297B 
 100      A1DFED7A 
 100      D1E9
 101 00a0 E8AB2835 		.ascii	"\350\253(5\243\274\322xIy\205\244+\201\032$\2730\230"
 101      A3BCD278 
 101      497985A4 
 101      2B811A24 
 101      BB3098
 102 00b3 C04022F0 		.ascii	"\300@\"\360\262\364\250\361g\351\201\351hz\022\037\320"
 102      B2F4A8F1 
 102      67E981E9 
 102      687A121F 
 102      D0
 103 00c4 1772F111 		.ascii	"\027r\361\021&\267\010\235\331\030\365\224\357\333\312"
 103      26B7089D 
 103      D918F594 
 103      EFDBCA
 104 00d3 5B327E89 		.ascii	"[2~\211\0307\313\271\010\271R\030\372Ct\301Ww})\204"
 104      1837CBB9 
 104      08B95218 
 104      FA4374C1 
 104      57777D29 
 105 00e8 8EF204B6 		.ascii	"\216\362\004\266\267\322\200F\330Rr\211f\363\354k4\177"
 105      B7D28046 
 105      D8527289 
 105      66F3EC6B 
 105      347F
 106 00fa A7E6947A 		.ascii	"\247\346\224z\350JnA\223\327\220g{\204\216 \202b\014"
 106      E84A6E41 
 106      93D79067 
 106      7B848E20 
 106      82620C
 107 010d 65351DA3 		.ascii	"e5\035\243\365{~\377\332\010\335\021v/\273\255/\321"
 107      F57B7EFF 
 107      DA08DD11 
 107      762FBBAD 
 107      2FD1
 108 011f 9FC29546 		.ascii	"\237\302\225F0Z\345\2553\327\031\376\026\333\266\352"
 108      305AE5AD 
 108      33D719FE 
 108      16DBB6EA 
 109 012f E2D4F6E1 		.ascii	"\342\324\366\341\273\255x\031\253\005\207\027c\342\023"
 109      BBAD7819 
 109      AB058717 
 109      63E213
 110 013e 1258070F 		.ascii	"\022X\007\017\210:\312`\242}k\2068#$V\333\337[q\215"
 110      883ACA60 
 110      A27D6B86 
 110      38232456 
 110      DBDF5B71 
 111 0153 10B8F17D 		.ascii	"\020\270\361}?\216\015Vs\341\345\240\347\377\0017\031"
 111      3F8E0D56 
 111      73E1E5A0 
 111      E7FF0137 
 111      19
ARM GAS  C:\Users\unyacat\AppData\Local\Temp\ccVMOIUr.s 			page 8


 112 0164 C818FA01 		.ascii	"\310\030\372\001\265\367\371\221V\353-\016\320\011\034"
 112      B5F7F991 
 112      56EB2D0E 
 112      D0091C
 113 0173 6F2770D3 		.ascii	"o'p\323?\363F}\336\013\241\301\363\362\200\256\214\321"
 113      3FF3467D 
 113      DE0BA1C1 
 113      F3F280AE 
 113      8CD1
 114 0185 2966BC5D 		.ascii	")f\274]\343\336\315\373\203\336\033\213z\236Y\023Vv"
 114      E3DECDFB 
 114      83DE1B8B 
 114      7A9E5913 
 114      5676
 115 0197 2C67BD7A 		.ascii	",g\275z\231\232\234\316f\254\364Hjrx(\235y32\3768C]"
 115      999A9CCE 
 115      66ACF448 
 115      6A727828 
 115      9D793332 
 116 01af AF277256 		.ascii	"\257'rV6;=\225K\345Xd\276x\372<\331A\177\001\2437\264"
 116      363B3D95 
 116      4BE55864 
 116      BE78FA3C 
 116      D9417F01 
 117 01c6 75       		.ascii	"u"
 118              		.text
 119              		.section	.gnu.lto_CySysPmDeepSleep.9235892d,"",%progbits
 120 0000 789C7D94 		.ascii	"x\234}\224MHTQ\024\307\357\271w\276\232\017\235\010"
 120      4D485451 
 120      14C7EFB9 
 120      77BE9A0F 
 120      9D08
 121 0012 6AD114D3 		.ascii	"j\321\024\323\302\205\033\021l\333J(j%\272h#ELCD\246"
 121      C2851B11 
 121      6CDB4A28 
 121      6A25BA68 
 121      23454C43 
 122 0028 328C8B36 		.ascii	"2\214\2136\315uf^Zi\010\246bYS\011\371\375UjNZ>\307"
 122      CD75665E 
 122      5A6908A6 
 122      62595309 
 122      F9FD556A 
 123 0040 52082C74 		.ascii	"R\010,t\321\302(d\012\033B$MA,{\235\373\3568j_\027\346"
 123      D1C22864 
 123      0A1B4224 
 123      4D412C7B 
 123      9DFBEE38 
 124 0058 BC77EF3B 		.ascii	"\274w\357;\347w\377\347\334s\307@\200\210Qn $\027\237"
 124      E777FFE7 
 124      DC73C740 
 124      8088516E 
 124      2024179F 
 125 006c FBF1078C 		.ascii	"\373\361\007\214\000\255y\215\213\026\012 ^\270\005"
 125      00AD798D 
 125      8B160A20 
 125      5EB805
 126 007b 48804200 		.ascii	"H\200B\000V\351\006\205X\305|\224f\266p\034sJ<\233\267"
ARM GAS  C:\Users\unyacat\AppData\Local\Temp\ccVMOIUr.s 			page 9


 126      56E90685 
 126      58C57C94 
 126      66B6701C 
 126      734A3C9B 
 127 0090 AAA03042 		.ascii	"\252\2400B4\252\223\010\264@&A\267\351po\023[\241\012"
 127      34AA9308 
 127      B4402641 
 127      B7E9706F 
 127      135BA10A 
 128 00a4 0330E074 		.ascii	"\0030\340ti\352\326\30741\245\340\306\351\315\256{\363"
 128      69EAD6C7 
 128      3431A5E0 
 128      C6E9CDAE 
 128      7BF3
 129 00b6 06760884 		.ascii	"\006v\010\204\347\324L\317\242=\243\231\207C\\m\234"
 129      E7D44CCF 
 129      A23DA399 
 129      87435C6D 
 129      9C
 130 00c7 70357235 		.ascii	"p5r5\354V\030\203v`\010\2056pA+\270t8z\327.\277\037"
 130      EC561883 
 130      76600885 
 130      3670412B 
 130      B874387A 
 131 00df 32B12C3D 		.ascii	"2\261,=r\266\273&l\305H\036\344j\335\204\243\201\253"
 131      72B6BB26 
 131      6CC5481E 
 131      E46ADD84 
 131      A381AB
 132 00f2 E5186980 		.ascii	"\345\030i\200N\031\231\343\202\354T\\\274\357g\235\303"
 132      4E1999E3 
 132      82EC545C 
 132      BCEF679D 
 132      C3
 133 0103 1416B2DD 		.ascii	"\024\026\262\335\320\005\031\320\001\031R4t\203\011"
 133      D00519D0 
 133      01195234 
 133      748309
 134 0112 CB403757 		.ascii	"\313@7W{\362U\256i(\246\3264\266b\335\203\345\300\017"
 134      7BF255AE 
 134      6928A6D6 
 134      34B662DD 
 134      83E5C00F 
 135 0126 06A230A3 		.ascii	"\006\2420\243Q\0303\032\223E\274Y\205\261\011\343\020"
 135      5118331A 
 135      9345BC59 
 135      85B109E3 
 135      10
 136 0137 C6290C21 		.ascii	"\306)\014!_\221)\252\266D\251x\262\004\204\324\321+"
 136      5F9129AA 
 136      B644A978 
 136      B20484D4 
 136      D12B
 137 0149 7BC52E21 		.ascii	"{\305.!\306PI4\272\360\316\034\330\340\225\234;\025"
 137      C6504934 
 137      BAF0CE1C 
 137      D8E0959C 
ARM GAS  C:\Users\unyacat\AppData\Local\Temp\ccVMOIUr.s 			page 10


 137      3B15
 138 015b 66D6286E 		.ascii	"f\326(n\016=\020\300p\013\211\003\325\365\340\226\350"
 138      0E3D10C0 
 138      700B8903 
 138      D5F5E096 
 138      E8
 139 016c 4DE621B6 		.ascii	"M\346!\266~m\361\366e\031-\012Y\257\304\336\230E!w\351"
 139      7E6DF1F6 
 139      65192D0A 
 139      59AFC4DE 
 139      98452177 
 140 0181 25789968 		.ascii	"%x\231h\276n\227S\316;\271\360HT\253\003\346\010\334"
 140      BE6E9753 
 140      CE3BB9F0 
 140      4854AB03 
 140      E608DC
 141 0194 290FE3C1 		.ascii	")\017\343\301X\241\017\353\327+\352\007\217 \002H\014"
 141      58A10FEB 
 141      D72BEA07 
 141      8F200248 
 141      0C
 142 01a5 FD30499C 		.ascii	"\3750I\234Q\022\225\352\256\006\253@\030A\303a\206\307"
 142      511295EA 
 142      AE06AB40 
 142      1841C361 
 142      86C7
 143 01b7 E88D1BD7 		.ascii	"\350\215\033\327\203p\373\037\260\037\201\210\221*\327"
 143      8370FB1F 
 143      B01F8188 
 143      912AD7
 144 01c6 0F48AA79 		.ascii	"\017H\252y\273H\233.\262i\255\356\206UNg\342\232&\226"
 144      BB489B2E 
 144      B269ADEE 
 144      86554E67 
 144      E29A2696 
 145 01da 266B23CB 		.ascii	"&k#\313\260\311\264\303 2\007t\346\023)2\270\\\261\300"
 145      B0C9B4C3 
 145      20320774 
 145      E6132932 
 145      B85CB1C0 
 146 01ee 24D082CC 		.ascii	"$\320\202\314\035z\036V4~H\346\\\225\314yz\370S5\325"
 146      1D7A1E56 
 146      347E48E6 
 146      5C95CC79 
 146      7AF85335 
 147 0203 71E59CDB 		.ascii	"q\345\234\333\204\312\241\224\312\250\256\322\"U\276"
 147      84CAA194 
 147      CAA8AED2 
 147      2255BE
 148 0212 BD7B4A52 		.ascii	"\275{JR\255\030\325|5\\\231\004\325\314\206x\032.\015"
 148      AD18D57C 
 148      355C9904 
 148      D5CC8678 
 148      1A2E0D
 149 0225 CD3D184C 		.ascii	"\315=\030L\337\312\365i\2122\234,\336Z\262x6\211H\265"
 149      DFCAF569 
 149      8A329C2C 
ARM GAS  C:\Users\unyacat\AppData\Local\Temp\ccVMOIUr.s 			page 11


 149      DE5AB278 
 149      368948B5 
 150 0239 B9110C30 		.ascii	"\271\021\0140\362[\341\376\011{\246K\262II\023\221R"
 150      F25BE1FE 
 150      097BA64B 
 150      B2494913 
 150      9152
 151 024b 89746048 		.ascii	"\211t`HC\1770=y\234A\231\332z{\274{\033\344y\0122*\025"
 151      437F303D 
 151      799C4199 
 151      DA7A7BBC 
 151      7B1BE479 
 152 0263 C5EAEFEF 		.ascii	"\305\352\357\357\323[\246C\264\214\203$ \254~\233\264"
 152      D35BA643 
 152      B48C8324 
 152      20AC7E9B 
 152      B4
 153 0274 8B25F247 		.ascii	"\213%\362G\26794\354J\002*v\033~\033\211T\265\351\347"
 153      B73934EC 
 153      4A022A76 
 153      1B7E1B89 
 153      54B5E9E7 
 154 0288 92865D37 		.ascii	"\222\206]7\006.\205\245\223\317\300\307\277O\352M(n"
 154      062E85A5 
 154      93CFC0C7 
 154      BF4FEA4D 
 154      286E
 155 029a CE117D87 		.ascii	"\316\021}\207\245\027\313f\251\321\251\337\233\355I"
 155      A517CB66 
 155      A9D1A9DF 
 155      9BED49
 156 02a9 6EE9C3D2 		.ascii	"n\351\303\322\347\220\235\032cz\242N)\352\025\375\273"
 156      E7909D1A 
 156      637AA24E 
 156      29EA15FD 
 156      BB
 157 02ba 28A746F1 		.ascii	"(\247F\361\017\004\306Q\024\366\274\302v\223/\020TW"
 157      0F04C651 
 157      14F6BCC2 
 157      76932F10 
 157      5457
 158 02cc 4F6C6AC0 		.ascii	"Olj\300+\005\342*\241\362\203\307\274\305^\337\031\277"
 158      2B05E22A 
 158      A1F283C7 
 158      BCC55EDF 
 158      19BF
 159 02de F7ECE982 		.ascii	"\367\354\351\202\2222\237\307[\230WP\222{\270\320s)"
 159      92329FC7 
 159      5B985750 
 159      927BB8D0 
 159      7329
 160 02f0 EF629687 		.ascii	"\357b\226\207\330=E\027\012\274E^\217?\337{.\355|\261"
 160      D83D4517 
 160      0ABC455E 
 160      8F3FDF7B 
 160      2EED7CB1 
 161 0304 DFEBF395 		.ascii	"\337\353\363\225\225\372\013\374\030a:y\364\270\333"
ARM GAS  C:\Users\unyacat\AppData\Local\Temp\ccVMOIUr.s 			page 12


 161      95FA0BFC 
 161      18613A79 
 161      F4B8DB
 162 0313 4A7E0145 		.ascii	"J~\001E-\2222"
 162      2D9232
 163              		.text
 164              		.section	.gnu.lto_CySysPmHibernate.9235892d,"",%progbits
 165 0000 789C7D93 		.ascii	"x\234}\223MHTQ\024\307\357\271\367\371f\306\031\337"
 165      4D485451 
 165      14C7EFB9 
 165      F7F966C6 
 165      19DF
 166 0012 0CB4091C 		.ascii	"\014\264\011\034\304\026.\334\204`\264\016\202\242\235"
 166      C4162EDC 
 166      8460B40E 
 166      82A29D
 167 0021 E5A28D10 		.ascii	"\345\242\215\020a\263h\221\3060\006m\232;\316<5?\300"
 167      61B36891 
 167      C630066D 
 167      9A3BCE3C 
 167      353FC0
 168 0034 A894A290 		.ascii	"\250\224\242\220\032\320>\374,\265\031-}\030F\220X\202"
 168      1AD03EFC 
 168      2CB5192D 
 168      7D184690 
 168      5882
 169 0046 B4301299 		.ascii	"\2640\022\231\304\244\204\322\024Lr^\347\276\373\234"
 169      C4A484D2 
 169      144C725E 
 169      E7BEFB9C 
 170 0056 29C32EBC 		.ascii	")\303.\274\363\356;\234\363;\377s\336\275\012\001\""
 170      F3EE3B9C 
 170      F33BFF73 
 170      DEBD0A01 
 170      22
 171 0067 D6118590 		.ascii	"\326\021\205\220\303\370\316\307\007\030\001\332:MH"
 171      C3F8CEC7 
 171      071801DA 
 171      3A4D48
 172 0076 C44901C4 		.ascii	"\304I\001\304\206;\201\204)\204a\203nS\230\250_J\322"
 172      863B8184 
 172      29846183 
 172      6E5398A8 
 172      5F4AD2
 173 0089 E22E8E6B 		.ascii	"\342.\216kA\037;\031\341\372~\235\021bR\213D\240\013"
 173      411F3B19 
 173      E1FA7E9D 
 173      1162528B 
 173      44A00B
 174 009c 8A09865D 		.ascii	"\212\011\206]_\373\230P\331\001\020\373\271\336\326"
 174      5FFB9850 
 174      D90110FB 
 174      B9DED6
 175 00ab 586E519C 		.ascii	"XnQ\234\363Znl\274\361\266s#R\2503\200\007\3000\015"
 175      F35A6E6C 
 175      BCF1B673 
 175      2352A833 
ARM GAS  C:\Users\unyacat\AppData\Local\Temp\ccVMOIUr.s 			page 13


 175      8007C030 
 176 00c0 4AFD50E2 		.ascii	"J\375P\342\267\222165\220\276\231\247\306\004\276\020"
 176      B7923136 
 176      3590BE99 
 176      A7C604BE 
 176      10
 177 00d1 1E429104 		.ascii	"\036B\221\004\303#PQ*\010O\337)\203\233f\224\033?\334"
 177      C3235051 
 177      2A084FDF 
 177      29839B66 
 177      941B3FDC 
 178 00e5 93EBDA3E 		.ascii	"\223\353\332>\224\213\316\034\2423\252\012\343D\303"
 178      948BCE1C 
 178      A233AA0A 
 178      E344C3
 179 00f4 5C62E716 		.ascii	"\\b\347\026\306#\214&\214W\030\2370\204|\307G\264\266"
 179      C6238C26 
 179      8C57189F 
 179      30847CC7 
 179      47B4B6
 180 0107 4AA978B3 		.ascii	"J\251x\263e\210\032?\233\374\242L\2241\224\221L\256"
 180      65881A3F 
 180      9BFCA24C 
 180      94319491 
 180      4CAE
 181 0119 7C7084B7 		.ascii	"|p\204\267y\003\347>\235)&\025\325\037C\030\323sH\012"
 181      7903E73E 
 181      9D292615 
 181      D51F4318 
 181      D373480A 
 182 012d A82508EB 		.ascii	"\250%\010\353b4\021\311\327\2465\341\"\377\244\252&"
 182      623411C9 
 182      D7A635E1 
 182      22FFA4AA 
 182      26
 183 013e 9620D06D 		.ascii	"\226 \320m\245:\310\022Ll5.%\256\310J9\030\336\246O"
 183      A53AC812 
 183      4C6C352E 
 183      25AEC84A 
 183      3918DEA6 
 184 0153 BC75AC53 		.ascii	"\274u\254S\2359\255YM.\307\233<\362\223\363n\256\240"
 184      9D39AD59 
 184      4D2EC79B 
 184      3CF293F3 
 184      6EAEA0
 185 0166 6BB9C518 		.ascii	"k\271\305\030rt\300\335H\014t\346\202^\360C\017\340"
 185      7274C0DD 
 185      480C74E6 
 185      825EF043 
 185      0FE0
 186 0178 C0A00F3A 		.ascii	"\300\240\017:\000\211\321MU\342v\210\351\206\333T ("
 186      0089D14D 
 186      55E27688 
 186      E986DB54 
 186      2028
 187 018a 88313AA1 		.ascii	"\2101:\241\037\243\261p\033\210\260\377\001\007\020"
 187      1FA3B170 
ARM GAS  C:\Users\unyacat\AppData\Local\Temp\ccVMOIUr.s 			page 14


 187      1B88B0FF 
 187      010710
 188 0199 8818A932 		.ascii	"\210\030\2512\235\220\011Q\346\374Sf\256%\363F|\274"
 188      9D900951 
 188      E6FC5366 
 188      AE25F346 
 188      7CBC
 189 01ab 51919FEF 		.ascii	"Q\221\237\357R\246)\\\315\235\363\213\312\016\325\015"
 189      52A6295C 
 189      CD9DF38B 
 189      CA0ED50D 
 190 01bb 4F91FAC4 		.ascii	"O\221\372\304\242\016J\231\265k\365S\212\004\272\220"
 190      A20E4A99 
 190      B56BF553 
 190      8A04BA90 
 191 01cb F997A2CE 		.ascii	"\371\227\242\316\372[\363v\327\315v\3273\243\213-\324"
 191      FA5BF376 
 191      D7CD76D7 
 191      33A38B2D 
 191      D4
 192 01dc C245382F 		.ascii	"\302E8/%B\350PF\350\260%\324%\205\276O^\222X7\246\305"
 192      2542E850 
 192      46E8B025 
 192      D42585BE 
 192      4F5E9258 
 193 01f3 AFC61A6C 		.ascii	"\257\306\032lR\353\\\224k\350J,\334\037\366f\333}\226"
 193      52EB5C94 
 193      6BE84A2C 
 193      DC1FF666 
 193      DB7D96
 194 0206 A12476CD 		.ascii	"\241$v\315\317#\0213\261\376;L\316O\201\344\256\331"
 194      CF231133 
 194      B1FE3B4C 
 194      CE4F81E4 
 194      AED9
 195 0218 ED091BB1 		.ascii	"\355\011\033\261$y\244\244W#\366\037\026\365\353\006"
 195      2479A4A4 
 195      5723F61F 
 195      16F5EB06 
 196 0228 57A63429 		.ascii	"W\2464)\251\333n\256y{\366\223\222\245\214f(\317mI\277"
 196      A9DB6EAE 
 196      797BF693 
 196      92A58C66 
 196      28CF6D49 
 197 023d EA666D51 		.ascii	"\352fmQ^\011I}\373\272e\213\342i\323\364\302\013KXt"
 197      5E09497D 
 197      FBBA658B 
 197      E269D3F4 
 197      C20B4B58 
 198 0252 B36E365F 		.ascii	"\263n6_\006\3720\026\003\333S\257{4\031\270\0120f\313"
 198      06FA3016 
 198      03DB53AF 
 198      7B3419B8 
 198      0A3066CB 
 199 0266 BF5760EB 		.ascii	"\277W`\353\317V\316\2145[}\334\352\301G>\003\1779/\017"
 199      CF56CE8C 
 199      355B7DDC 
ARM GAS  C:\Users\unyacat\AppData\Local\Temp\ccVMOIUr.s 			page 15


 199      EAC1473E 
 199      037F392F 
 200 027b 34AE123C 		.ascii	"4\256\022<\3411cm\217\003\3561)^\1770\360\200\343e\320"
 200      E131636D 
 200      8F03EE31 
 200      295E7F30 
 200      F080E365 
 201 0290 591EF902 		.ascii	"Y\036\371\002\265\306\3064\335I\307\313\006\342\222"
 201      B5C6C634 
 201      DD49C7CB 
 201      06E292
 202 029f E1352838 		.ascii	"\3415(8\036\250\012\004\317\206\002\347\316\224W\327"
 202      1EA80A04 
 202      CF8602E7 
 202      CE9457D7 
 203 02af 042B0315 		.ascii	"\004+\003\025e\345\325G\017UT^.\273p\260\222h\347\253"
 203      65E5D547 
 203      0F55545E 
 203      2EBB70B0 
 203      9268E7AB 
 204 02c3 428160B0 		.ascii	"B\201`\260\346b\250<\204A\352\351c'\012s\311o\\\233"
 204      E662A83C 
 204      8441EAE9 
 204      63270A73 
 204      C96F5C9B 
 205 02d7 78C2     		.ascii	"x\302"
 206              		.text
 207              		.section	.gnu.lto_CySysPmSetWakeupPolarity.9235892d,"",%progbits
 208 0000 789C7D51 		.ascii	"x\234}QMHTQ\024>\347\336\3677\246c\340\246`\020[\210"
 208      4D485451 
 208      143EE7DE 
 208      F737A663 
 208      E0A66010 
 209 0016 D822035B 		.ascii	"\330\"\003[\264j\323\242\255\350V\010\261Y\010\2452"
 209      B46AD3A2 
 209      ADE85608 
 209      B15908A5 
 209      32
 210 0027 8C0B2198 		.ascii	"\214\013!\230;\316\274)\302\205 \032\206!\024e?\223"
 210      3BCEBC29 
 210      C285201A 
 210      86211465 
 210      3F93
 211 0039 7FF93720 		.ascii	"\177\3717 \364\220t\021Z\204\322\"\011JCE$\0321\250"
 211      F4907411 
 211      5A84D222 
 211      094A4345 
 211      241A31A8 
 212 004d FC799DF3 		.ascii	"\374y\235\363\256-$\350-\356=\367\276\363\375\334\357"
 212      AE2D24E8 
 212      2DEE3DF7 
 212      BEF3FDDC 
 212      EF
 213 005e 1880C01F 		.ascii	"\030\200\300\037J\200\213\264_\342\332\002\024]o\001"
 213      4A808BB4 
 213      5FE2DA02 
 213      145D6F01 
ARM GAS  C:\Users\unyacat\AppData\Local\Temp\ccVMOIUr.s 			page 16


 214 006e 928E1072 		.ascii	"\222\216\020r\246\024T\201\261\\\005\252P\242\251\257"
 214      A6145481 
 214      B15C05AA 
 214      50A2A9AF 
 215 007e 8DBF8589 		.ascii	"\215\277\205\211\310\205r\020\022B\032&&\360\2078\020"
 215      C8857210 
 215      12421A26 
 215      26F08738 
 215      10
 216 008f 387B6B3D 		.ascii	"8{k='*\007\025}\237\335\261\332\244rO\271\244\340\013"
 216      272A0715 
 216      7D9FDDB1 
 216      DAA4724F 
 216      B9A4E00B 
 217 00a3 D06A8358 		.ascii	"\320j\203XI]\357\323#\375rW\270\022\321\240c~\361\336"
 217      495DEFD3 
 217      23FD7257 
 217      B812D1A0 
 217      637EF1DE 
 218 00b7 5A988F02 		.ascii	"Z\230\217\002\313\350\370ako\316\220g\020\250~\243\036"
 218      CBE8F861 
 218      6B6FCE90 
 218      6710A87E 
 218      A31E
 219 00c9 AC38158F 		.ascii	"\2548\025\217\224\352Pj\"\252B\256\224\370\014%\361"
 219      94EA506A 
 219      22AA42AE 
 219      94F80C25 
 219      F1
 220 00da E1538CE0 		.ascii	"\341S\214\340\023\214\000]\001>\307\012n\357\336\371"
 220      138C005D 
 220      013EC70A 
 220      6EEFDEF9 
 221 00ea 346DC9B3 		.ascii	"4m\311\263\001\364\343PW\272\240\374!C\275\236\245\342"
 221      01F4E350 
 221      57BAA0FC 
 221      2143BD9E 
 221      A5E2
 222 00fc BBCA4B96 		.ascii	"\273\312K\226\271\322\300\254\206WG\360|$0E\275\253"
 222      B9D2C0AC 
 222      865747F0 
 222      7C243045 
 222      BDAB
 223 010e A3873D45 		.ascii	"\243\207=EV\232m\227\341\013,\327\206q\010-J\011\371"
 223      569A6D97 
 223      E10B2CD7 
 223      8671082D 
 223      4A09F9
 224 0121 66B8D653 		.ascii	"f\270\326S\276\237R^w\311\334dI!\222\254i\000\377\241"
 224      BE9F525E 
 224      77C9DC64 
 224      492192AC 
 224      6900FFA1 
 225 0135 2848DDE2 		.ascii	"(H\335\342\013\233\027\207\227\020/\000\337\211\206"
 225      0B9B1787 
 225      97102F00 
 225      DF8986
ARM GAS  C:\Users\unyacat\AppData\Local\Temp\ccVMOIUr.s 			page 17


 226 0144 73CA0BC1 		.ascii	"s\312\013\301\273\334\304\224\327\327\035a\342\224\344"
 226      BBDCC494 
 226      D7D71D61 
 226      E294E4
 227 0153 A7E772DB 		.ascii	"\247\347r\333+v\342@\335V\352\244+-_\260\3360&\010n"
 227      2B76E240 
 227      DD56EAA4 
 227      2B2D5FB0 
 227      DE302608 
 228 0168 C32A8AC0 		.ascii	"\303*\212\300\002\211P7|\301\364J\352\325\343~\251\341"
 228      02895037 
 228      7CC1F44A 
 228      EAD5E37E 
 228      A9E1
 229 017a 26C187B7 		.ascii	"&\301\207\267s\277\21289\023\001GP\277'/$\314\224\312"
 229      73BF8A38 
 229      39130147 
 229      50BF272F 
 229      24CC94CA 
 230 018e 759CFD7D 		.ascii	"u\234\375}g\367\250\331\242\346^w\366\235\315\315N\220"
 230      67F7A8D9 
 230      A2E65E77 
 230      F69DCDCD 
 230      4E90
 231 01a0 4F667C7B 		.ascii	"Of|{!\254\217Y\225U\354\246\363`y\315\030\300\373\311"
 231      21AC8F59 
 231      9555ECA6 
 231      F36079CD 
 231      18C0FBC9 
 232 01b4 34BA3284 		.ascii	"4\2722\204c\224\360(\223\342K\034@X\307\324\317\314"
 232      6394F028 
 232      93E24B1C 
 232      4058C7D4 
 232      CFCC
 233 01c6 D7D39AD0 		.ascii	"\327\323\232\320\326\234\033\337\262\235\2666\240\224"
 233      D69C1BDF 
 233      B29DB636 
 233      A094
 234 01d4 81E38185 		.ascii	"\201\343\201\205\2740`\271J\033\230_\274\251\001\316"
 234      BC3060B9 
 234      4A1B985F 
 234      BCA901CE 
 235 01e4 FFF8278E 		.ascii	"\377\370'\216\370\3673\207\013\323\226\006\2044\246"
 235      F8F73387 
 235      0BD39606 
 235      8434A6
 236 01f3 6371643E 		.ascii	"cqd>\254\025|\177\317/\306\311#\0153H\224DzG7^\333\214"
 236      AC157C7F 
 236      CF2FC6C9 
 236      230D3348 
 236      94447A47 
 237 020b 39A69054 		.ascii	"9\246\220T\252\032\216\253L\221JJ\"lb\332\033/a\004"
 237      AA1A8EAB 
 237      4C914A4A 
 237      226C62DA 
 237      1B2F6104 
 238 021f FC338202 		.ascii	"\3743\202\002\237F\0058M#\240\314]y\002\266\260\303"
ARM GAS  C:\Users\unyacat\AppData\Local\Temp\ccVMOIUr.s 			page 18


 238      9F460538 
 238      4D23A0CC 
 238      5D7902B6 
 238      B0C3
 239 0231 9B5A0A26 		.ascii	"\233Z\012&\301\351\356 q\330r\277/_H\036\015\2361\262"
 239      C1E9EE20 
 239      71D872BF 
 239      2F5F481E 
 239      0D9E31B2 
 240 0245 1342955E 		.ascii	"\023B\225^\2116Gc\015\361\350\265\253u-m\261\306h}M"
 240      89364763 
 240      0DF1E8B5 
 240      AB752D6D 
 240      B1C6687D 
 241 025a 5DCBE50B 		.ascii	"]\313\345\013\365\215\35557\3165\202\323\332r\275!\326"
 241      F58DED35 
 241      37CE3582 
 241      D3DA72BD 
 241      21D6
 242 026c 146F0F37 		.ascii	"\024o\01775\307\243\261X[k\274.N\335\177\000{o\030L"
 242      35C7A3B1 
 242      585B6BBC 
 242      2E4EDD7F 
 242      007B6F18 
 243              		.text
 244              		.section	.gnu.lto_CySysPmGetResetReason.9235892d,"",%progbits
 245 0000 789C5592 		.ascii	"x\234U\222\317KTQ\024\307\357\367\336\373\236C\245\010"
 245      CF4B5451 
 245      14C7EFF7 
 245      DEFB9E43 
 245      A508
 246 0012 8A2B095B 		.ascii	"\212+\011[H\270iS\377A\213\242\225d\213\026B\230\315"
 246      48B86953 
 246      FF418BA2 
 246      95648B16 
 246      4298CD
 247 0025 3205AB45 		.ascii	"2\005\253E+\3578\363\014C,\37311\245\014Q`\2466\216"
 247      2BEF38F3 
 247      0C432CFB 
 247      3131A50C 
 247      5160A636 
 248 003a BF4A339A 		.ascii	"\277J3\232\304\240\305Tdn\202\212\030\355\007!\344H"
 248      C4A0C554 
 248      646E828A 
 248      18ED0721 
 248      E448
 249 004c 2D4AC7E9 		.ascii	"-J\307\351\234\373f`|\360\356\275\347r>\337\363\343"
 249      9CFB6660 
 249      7CF0EEBD 
 249      E7723EDF 
 249      F3E3
 250 005e 1E2D20F8 		.ascii	"\036- \370;\246\204\330O\373\011\372Q& \257\276\021"
 250      3BA684D8 
 250      4FFB09FA 
 250      512620AF 
 250      BE11
 251 0070 221490DA 		.ascii	"\"\024\220\332]\254\022&\240\354\252\355\352\3707p}"
ARM GAS  C:\Users\unyacat\AppData\Local\Temp\ccVMOIUr.s 			page 19


 251      5DAC1226 
 251      A0ECAAED 
 251      EAF83770 
 251      7D
 252 0081 175D3C38 		.ascii	"\027]<8\305\203\013\360\301\004 :\245\322\216\213N\374"
 252      C5830BF0 
 252      C104203A 
 252      A5D28E8B 
 252      4EFC
 253 0093 91398977 		.ascii	"\2219\211w\221\361\001\365[zJ@\223\231}}{\245\202M\240"
 253      91F101F5 
 253      5B7A4A40 
 253      93997D7D 
 253      7BA5824D 
 254 00a8 8ECC3B66 		.ascii	"\216\314;f\251\247\254a\310\230.\363\305{~\272?\354"
 254      A9A7AC61 
 254      C8982EF3 
 254      C57B7EBA 
 254      3FEC
 255 00ba 1DF59414 		.ascii	"\035\365\224\024y)\360\000\265\030B-\3476\214\006A\316"
 255      7929F000 
 255      B518422D 
 255      E7368C06 
 255      41CE
 256 00cc 8383DBCB 		.ascii	"\203\203\333\313\216\332\007>o^{\326W^\177\217\301T"
 256      8EDA073E 
 256      6F5E7BD6 
 256      575E7F8F 
 256      C154
 257 00de EE7A75CC 		.ascii	"\356zu\314\244\"uD\342!\324NX\260w&\271}\263\334\215"
 257      A4227544 
 257      E221D44E 
 257      58B07726 
 257      B97DB3DC 
 258 00f3 18FAEA30 		.ascii	"\030\372\3520\202z\016@\272\243p\251\023\340\233\304"
 258      827A0E40 
 258      BAA370A9 
 258      13E09BC4 
 259 0103 F194C9E7 		.ascii	"\361\224\311\347\303&\265Y\365\362s\215\003\301\227"
 259      C326B559 
 259      F5F2738D 
 259      03C197
 260 0112 4A784A69 		.ascii	"JxJi^\204X'\202+\314J\311\273\312\240\213\003[\015r"
 260      5E845827 
 260      822BCC4A 
 260      C9BBCAA0 
 260      8B035B0D 
 261 0127 A520516F 		.ascii	"\245 Qo\341m\031\227&\211\036\243\340\337\260\360\357"
 261      E16D1997 
 261      26891EA3 
 261      E0DFB0F0 
 261      EF
 262 0138 F2C24976 		.ascii	"\362\302Iv\011+U\352\241m\015\335Sk\351\012\337\034"
 262      092B55EA 
 262      A16D0DDD 
 262      536BE90A 
 262      DF1C
ARM GAS  C:\Users\unyacat\AppData\Local\Temp\ccVMOIUr.s 			page 20


 263 014a 35A386DB 		.ascii	"5\243\206\333\323\233[^\321q\014\206\"\360\224\203\004"
 263      D39B5B5E 
 263      D1710C86 
 263      22F09483 
 263      04
 264 015b 95F188CB 		.ascii	"\225\361\210\313\3008\342 \301\360V\367G\355\013j_3"
 264      C038E220 
 264      C1F056F7 
 264      47ED0B6A 
 264      5F33
 265 016d E1AD0E07 		.ascii	"\341\255\016\007XD!\017$\311\371+<s\260\340\303A?\334"
 265      5844210F 
 265      24C9F92B 
 265      3C73B0E0 
 265      C3413FDC 
 266 0181 FFE1F4E3 		.ascii	"\377\341\364\343J\210\312O-\327x\312\245gR\334\030L"
 266      4A88CA4F 
 266      2DD778CA 
 266      A56752DC 
 266      184C
 267 0193 A01F2CB1 		.ascii	"\240\037,\2616\373\267\334\227\340\264rK\003^\240\010"
 267      36FBB7DC 
 267      97E0B472 
 267      4B035EA0 
 267      08
 268 01a4 4419C024 		.ascii	"D\031\300$\311\032\305S\203)\237\271\225y5V\3413Y\266"
 268      C91AC553 
 268      83299FB9 
 268      95793556 
 268      E13359B6 
 269 01b8 B7D2DF7F 		.ascii	"\267\322\337\177\351\"4n\241i\013\331F\317\370\320\213"
 269      E922346E 
 269      A1690BD9 
 269      46CFF8D0 
 269      8B
 270 01c9 ED4C6CB7 		.ascii	"\355Ll\267\017m\260\275\236|?\263\247\010\315Y\350\261"
 270      0F6DB0BD 
 270      9E7C3FB3 
 270      A708CD59 
 270      E8B1
 271 01db 85383D3C 		.ascii	"\2058=<!Hp\303\225X\254R\253\010UrQ\234\006\367>\026"
 271      214870C3 
 271      9558AC52 
 271      AB085572 
 271      519C06F7 
 272 01f1 AD29E9FD 		.ascii	"\255)\351\375\364\245tr\227\337{`\326>|V\352\235\234"
 272      F4A57472 
 272      97DF7B60 
 272      D63E7C56 
 272      EA9D9C
 273 0204 B4DC4429 		.ascii	"\264\334D)6\037\357\035.`\022s\005\314\331\211)\213"
 273      361FEF1D 
 273      2E601273 
 273      05CCD989 
 273      298B
 274 0216 CD97623D 		.ascii	"\315\227b=\003\261\221\302K+<-`\256\035\013\346l{\011"
 274      03B191C2 
ARM GAS  C:\Users\unyacat\AppData\Local\Temp\ccVMOIUr.s 			page 21


 274      4B2B3C2D 
 274      60AE1D0B 
 274      E66C7B09 
 275 022a AAB44314 		.ascii	"\252\264C\024\246\204\177\222\302\247h\265\377(\\\324"
 275      A6847F92 
 275      C2A768B5 
 275      FF285CD4 
 276 023a 869FA64A 		.ascii	"\206\237\246J'\223\340\300\372\306$X\311Y\245\235fG"
 276      2793E0C0 
 276      FAC62458 
 276      C959A59D 
 276      6647
 277 024c AEC5EF82 		.ascii	"\256\305\357\202f\016,J-\334{$\330\026\354h9\037<s\252"
 277      660E2C4A 
 277      2DDC7B24 
 277      D816EC68 
 277      391F3C73 
 278 0261 A9FD4247 		.ascii	"\251\375BGk\260\271\261\251\375\360\241\346\326\213"
 278      6BB0B9B1 
 278      A9FDF0A1 
 278      E6D68B
 279 0270 8D670FB4 		.ascii	"\215g\017\264\012\267#\330r\256\275\355?\024s(\""
 279      0AB723D8 
 279      72AEBDED 
 279      3F147328 
 279      22
 280              		.text
 281              		.section	.gnu.lto_CySysPmFreezeIo.9235892d,"",%progbits
 282 0000 789C8D92 		.ascii	"x\234\215\222Oh\023A\024\306\337\233\331\354\246MR{"
 282      4F681341 
 282      14C6DF9B 
 282      D9ECA64D 
 282      527B
 283 0012 5324940A 		.ascii	"S$\224\012\366\320\213\021\354\315\243\007\257\245\271"
 283      F6D08B11 
 283      ECCDA307 
 283      AFA5B9
 284 0021 78281489 		.ascii	"x(\024\2119x\260\225\220\036<e\322\354\306\"\202\005"
 284      3978B095 
 284      901E3C65 
 284      D2ECC622 
 284      8205
 285 0033 6D82A00D 		.ascii	"m\202\240\015\342\241\376\211\215\321V\033\360\260D"
 285      E2A1FE89 
 285      8DD1561B 
 285      F0B044
 286 0042 8A97A208 		.ascii	"\212\227\242\010A!j\324\010U$\224\266VQi\032\337\354"
 286      41216AD4 
 286      08552494 
 286      B6565169 
 286      1ADFEC
 287 0055 AC852204 		.ascii	"\254\205\"\004\027\366\315\356\360{\337\373\336\314"
 287      17F6CDEE 
 287      F07BDFFB 
 287      DECC
 288 0063 D300413E 		.ascii	"\323\000A>\011\016\020\242u\200^\364\000\262\251\347"
 288      090E10A2 
ARM GAS  C:\Users\unyacat\AppData\Local\Temp\ccVMOIUr.s 			page 22


 288      75805EF4 
 288      00B2A9E7 
 289 0073 00492F63 		.ascii	"\000I/c\274\022\002\321\251=\351\001\341\347\250\251"
 289      BC1202D1 
 289      A93DE901 
 289      E1E7A8A9 
 290 0083 6D0D517E 		.ascii	"m\015Q~\010/B\202q\015\023\370\2355\031\226\317\257"
 290      082F4282 
 290      710D13F8 
 290      9D351996 
 290      CFAF
 291 0095 9458FFAC 		.ascii	"\224X\377\254\240\347\303\322\267\241\244\260\366Y\244"
 291      A0E7C3D2 
 291      B7A1A4B0 
 291      F659A4
 292 00a4 DB624E09 		.ascii	"\333bN\011\300Y\354\007\302.o\274[\324\371\001\224\337"
 292      C059EC07 
 292      C22E6FBC 
 292      5BD4F901 
 292      94DF
 293 00b6 D5B929B3 		.ascii	"\325\271)\263\263\357\246\020\023\302.\276\336\223\025"
 293      B3EFA610 
 293      13C22EBE 
 293      DE9315
 294 00c5 76B2D7E2 		.ascii	"v\262\327\342\210\267\220S\032\036\011\342\341\240\223"
 294      88B79053 
 294      1A1E09E2 
 294      E1A093
 295 00d4 4C6CBDB8 		.ascii	"Ll\275\270=\035\320M)\337\213\267\261O\011\343\035\324"
 295      3D1DD04D 
 295      29DF8BB7 
 295      B14F09E3 
 295      1DD4
 296 00e6 A907943B 		.ascii	"\251\007\224;\205![\264Z)a\347\366.e\366wk 7=`q\246"
 296      85215BB4 
 296      5A2961E7 
 296      F62E65F6 
 296      776B2037 
 297 00fe CB60C8E0 		.ascii	"\313`\310\340\225\241C\006\237\014~\031\0022\000\254"
 297      95A14306 
 297      9F0C7E19 
 297      023200AC 
 298 010e D12BFB5A 		.ascii	"\321+\373ZgL\256\374\013\246\354\205lPVHq\215\034\224"
 298      674CAEFC 
 298      0BA6EC85 
 298      6C505648 
 298      718D1C94 
 299 0122 4A8D3746 		.ascii	"J\2157F\242)&\205\350\26689\224\205\357b\202\3225\250"
 299      A2292685 
 299      E8B63839 
 299      9485EF62 
 299      82D235A8 
 300 0136 2373BC50 		.ascii	"#s\274PI\242a\005\313\277/\274\252\235P\331\036\312"
 300      49A26105 
 300      CBBF2FBC 
 300      AA9D50D9 
 300      1ECA
ARM GAS  C:\Users\unyacat\AppData\Local\Temp\ccVMOIUr.s 			page 23


 301 0148 CE58E517 		.ascii	"\316X\345\027\306&\263\270\307i==\337X\356R\277y\221"
 301      C626B3B8 
 301      C7693D3D 
 301      DF58EE52 
 301      BF7991
 302 015b 1752FF62 		.ascii	"\027R\377b\263\362I\313\341\365\244\211\026\327\361"
 302      B3F249CB 
 302      E1F5A489 
 302      16D7F1
 303 016a 1E06318F 		.ascii	"\036\0061\217\324?\316a\016I1\265\225\336\322\224\240"
 303      D43FCE61 
 303      0E4931B5 
 303      95DED294 
 303      A0
 304 017b ABF97466 		.ascii	"\253\371tf\306dR\204\241\240\353(\020\375\021\315j*"
 304      C6645284 
 304      A1A0EB28 
 304      10FD11CD 
 304      6A2A
 305 018d E6528414 		.ascii	"\346R\204\024\032\245_\001\205\000\336Gu\234\353\214"
 305      1AA55F01 
 305      8500DE47 
 305      759CEB8C 
 306 019d 4325C41D 		.ascii	"C%\304\035\223?jWP\341F;\017\305\035\017\015]\341^\225"
 306      933F6A57 
 306      50E1463B 
 306      0FC51D0F 
 306      0D5DE15E 
 307 01b2 71F5E5F2 		.ascii	"q\365\345\362[\256\012\264\222\032> \232\260\237\351"
 307      5BAE0AB4 
 307      921A3E20 
 307      9AB09FE9 
 308 01c2 D5DA3543 		.ascii	"\325\3325C\201\035\304\022\370\371\322\263\015\237k"
 308      811DC412 
 308      F8F9D2B3 
 308      0D9F6B
 309 01d1 767392EC 		.ascii	"vs\222\354>t\320r\346\306A\311\355*\236\024\342(\354"
 309      3E74D072 
 309      E6C641C9 
 309      ED2A9E14 
 309      E228EC
 310 01e4 36304F06 		.ascii	"60O\006HK\235luDI\373\332Y^P\226\011\257\273\270\277"
 310      484B9D6C 
 310      754449FB 
 310      DA595E50 
 310      9609AFBB 
 311 01fa 1DFE6807 		.ascii	"\035\376h\007\337~\377\367H\002\355\022\036\273\011"
 311      DF7EFFF7 
 311      4802ED12 
 311      1EBB09
 312 0209 FFD9C0A2 		.ascii	"\377\331\300\242\323@\3009~\315\2350\323\236\256\372"
 312      D340C039 
 312      7ECD9D30 
 312      D39EAEFA 
 313 0219 6532FC33 		.ascii	"e2\3743_F\213\346\020\260D\363E\003eq/|\305\011;[u\306"
 313      5F468BE6 
 313      10B044F3 
ARM GAS  C:\Users\unyacat\AppData\Local\Temp\ccVMOIUr.s 			page 24


 313      45036571 
 313      2F7CC509 
 314 0231 CCB9C535 		.ascii	"\314\271\3055\272R\222!\252\347xt4\032;\031\217\236"
 314      BA529221 
 314      AAE77874 
 314      341A3B19 
 314      8F9E
 315 0243 1A098F8D 		.ascii	"\032\011\217\215\307\"\321\341\301\360\330\261\201\341"
 315      C722D1E1 
 315      C1F0D8B1 
 315      81E1
 316 0251 C8B9C133 		.ascii	"\310\271\3013\207\"\320uz4\036\215\305\306\317\306\303"
 316      8722D075 
 316      7A341E8D 
 316      C5C6CFC6 
 316      C3
 317 0262 7182FE00 		.ascii	"q\202\376\000j\201;!"
 317      6A813B21 
 318              		.text
 319              		.section	.gnu.lto_CySysPmStop.9235892d,"",%progbits
 320 0000 789C9592 		.ascii	"x\234\225\222\317KTQ\024\307\317\367\3367of\3242\\%"
 320      CF4B5451 
 320      14C7CFF7 
 320      DE376F66 
 320      D4325C25 
 321 0014 89D84A5C 		.ascii	"\211\330J\\\330\246\376\203\240hcS.\332\010\021\323"
 321      D8A6FE83 
 321      A0686353 
 321      2EDA0811 
 321      D3
 322 0025 2C4D105D 		.ascii	",M\020]\004\342\334i|\223\204\2136\015$\206\264\262"
 322      04E2DC69 
 322      7C93848B 
 322      360D2486 
 322      B4B2
 323 0037 1F63A6B5 		.ascii	"\037c\246\265\231M3M\330J\022\302M\270\021\303\037\310"
 323      994D334D 
 323      D84A12C2 
 323      4DB811C3 
 323      1FC8
 324 0049 202A2522 		.ascii	" *%\"\316<\317yW\003#\204.\274s\337y\357s\276\347|\337"
 324      CE3CCF79 
 324      57032384 
 324      2EBC73DF 
 324      79EF73BE 
 325 0060 BB0E8164 		.ascii	"\273\016\201d\015(\242v\336/\360\005MPO\277\021\245"
 325      0D28A276 
 325      DE2FF005 
 325      4D504FBF 
 325      11A5
 326 0072 220A901B 		.ascii	"\"\012\220\033\023\001%\025\222\370\255*\012\245\307"
 326      13012515 
 326      92F8AD2A 
 326      0AA5C7
 327 0081 AB79D536 		.ascii	"\253y\3256ax-\255\354\337J\031\357\274\247\211|\025"
 327      61782DAD 
 327      ECDF4A19 
ARM GAS  C:\Users\unyacat\AppData\Local\Temp\ccVMOIUr.s 			page 25


 327      EFBCA789 
 327      7C15
 328 0093 281126D0 		.ascii	"(\021&\320F\214-OW\237\235q\207\004k\261/\361\012\256"
 328      468C2D4F 
 328      579F9D71 
 328      87046BB1 
 328      2FF10AAE 
 329 00a7 B49BBA5D 		.ascii	"\264\233\272]4\276\2376\305\037\365\263\237\032j5y\032"
 329      34BE9F36 
 329      C51FF5B3 
 329      9F1A6A35 
 329      791A
 330 00b9 8E849084 		.ascii	"\216\204\220\204\210\204\250\004\242-.\223\001\266\225"
 330      8884A804 
 330      A22D2E93 
 330      01B695
 331 00c8 925DAF23 		.ascii	"\222]\257#]\\\234\257\023!i\221\317\227\027\303\311"
 331      5D5C9CAF 
 331      13216991 
 331      CF9717C3 
 331      C9
 332 00d9 8A1936E6 		.ascii	"\212\0316\346\234\247\225\257\270\004\257\221\344bM"
 332      9CA795AF 
 332      B804AF91 
 332      E4624D
 333 00e8 AB28ED3F 		.ascii	"\253(\355?\371Z\030\0248\2555\343Y\2574\037\376\245"
 333      F95A1814 
 333      38AD35E3 
 333      59AF341F 
 333      FEA5
 334 00fa 3CED40AA 		.ascii	"<\355@\2523\037\313sgm\23239\343\360\243\221\312\302"
 334      331FCB73 
 334      676D9A33 
 334      39E3F0A3 
 334      91CAC2
 335 010d 4F671C2F 		.ascii	"Og\034/RC\360t\010o\321\2047hb\321\034\306\301\212\351"
 335      5243F074 
 335      086FD184 
 335      376862D1 
 335      1CC6C18A 
 336 0122 83CC826B 		.ascii	"\203\314\202k\005\035\253\271\266\231\033\0114\001c"
 336      051DABB9 
 336      B6991B09 
 336      340163
 337 0131 1C4C32CD 		.ascii	"\034L2\315\330^\246\334h\261\020\223\214}\256.?\257"
 337      D85EA6DC 
 337      68B11093 
 337      8C7DAE2E 
 337      3FAF
 338 0143 B5D80EF0 		.ascii	"\265\330\016\360.\240J\331\227\315\002\235\350\2332"
 338      2EA04AD9 
 338      97CD029D 
 338      E89B32
 339 0152 E6329DEC 		.ascii	"\3462\235\354=\305\275Y\210\304\374n\375\277\275\273"
 339      3DC5BD59 
 339      88C4FC6E 
 339      FDBFBDBB 
ARM GAS  C:\Users\unyacat\AppData\Local\Temp\ccVMOIUr.s 			page 26


 340 0162 3E7F21C2 		.ascii	">\177!\302\373\300{\330z\337-\014\330\031\"\2479\233"
 340      FBC07BD8 
 340      7ADF2D0C 
 340      D81922A7 
 340      399B
 341 0174 3E72B697 		.ascii	">r\266\227\231;r\026\265\025\331\352\360\250:vf\370"
 341      993B7216 
 341      B515D9EA 
 341      F0A83A76 
 341      66F8
 342 0186 08CCFCD7 		.ascii	"\010\314\374\327\324\037\202\251\243\264\006\363e\264"
 342      D41F82A9 
 342      A3B406F3 
 342      65B4
 343 0194 21989AD7 		.ascii	"!\230\232\327\305 \037\373+\237\371\223\267\322\006"
 343      C5201FFB 
 343      2B9FF993 
 343      B7D206
 344 01a3 1E150BDF 		.ascii	"\036\025\013\337\325\361\003>\002\220_\317\356\232\257"
 344      D5F1033E 
 344      02905FCF 
 344      EE9AAF
 345 01b2 271E247A 		.ascii	"'\036$z\357\365%\356\337\355\354\351\357\215'\272b\235"
 345      EFF525EE 
 345      DFEDECE9 
 345      EF8D27BA 
 345      629D
 346 01c4 3D57AF74 		.ascii	"=W\257t\305\037\306\272/\305)\324q3VC\356\235k7Zj\350"
 346      C51FC6BA 
 346      2FC529D4 
 346      71335643 
 346      EE9D6B37 
 347 01db 10024DDF 		.ascii	"\020\002M\337\366"
 347      F6
 348              		.text
 349              		.section	.gnu.lto_CySysPmUnfreezeIo.9235892d,"",%progbits
 350 0000 789C7D92 		.ascii	"x\234}\222\317kSA\020\307\347\273\373\362\222&\032="
 350      CF6B5341 
 350      10C7E7BB 
 350      FBF29226 
 350      1A3D
 351 0012 8A0DA51E 		.ascii	"\212\015\245\036z\350E\205\372\037x\360Z\314\265 \022"
 351      7AE84585 
 351      FA1F78F0 
 351      5ACCB520 
 351      12
 352 0023 7310B495 		.ascii	"s\020\264\225\220\202\202\220}M^,\342\241 F\024\245"
 352      90828290 
 352      7D4D5E2C 
 352      E2A12046 
 352      14A5
 353 0035 140F551B 		.ascii	"\024\017U\033[\253U\233\333\343A=\205\212\340A\032E"
 353      5BAB559B 
 353      DBE3413D 
 353      858AE041 
 353      1A45
 354 0047 A9504A8D 		.ascii	"\251PJ\215\320\226\026\2124\215\263o\243P\013Y\330\331"
ARM GAS  C:\Users\unyacat\AppData\Local\Temp\ccVMOIUr.s 			page 27


 354      D096168A 
 354      348DB36F 
 354      A3500B59 
 354      D8D9
 355 0059 1F7CE63B 		.ascii	"\037|\346;3;k\021H\217\035At\212\327N\236\220\0041\266"
 355      333B6B11 
 355      488F1D41 
 355      748AD74E 
 355      9E900431 
 356 006e 48E44404 		.ascii	"H\344D\004\2407*\002\312\011\344\260-\032\002\376\255"
 356      A0372A02 
 356      CA09E4B0 
 356      2D1A02FE 
 356      AD
 357 007f 958AE89D 		.ascii	"\225\212\350\235T<\276/L%\035\345\036s%QS\004J\204I"
 357      543CBE2F 
 357      4C251DE5 
 357      1E732551 
 357      53044A84 
 358 0094 F4126377 		.ascii	"\364\022cw7\277\316\333\362\004\364~iz\254\020\355y"
 358      37BFCEDB 
 358      F204F47E 
 358      697AAC10 
 358      ED79
 359 00a6 A2D488F2 		.ascii	"\242\324\210\3626\226\216\334W\236\323\355J\340)$\273"
 359      36968EDC 
 359      579ED3ED 
 359      4AE02924 
 359      BB
 360 00b7 A12F81D3 		.ascii	"\241/\201\323\211\300\231\331\345\331\275{\207\355\202"
 360      89C099D9 
 360      E5D9BD7B 
 360      87ED82
 361 00c6 96EFC633 		.ascii	"\226\357\3063\364\030a<\207\315\251B\337\314\234\367"
 361      F418613C 
 361      87CDA942 
 361      DFCC9CF7 
 362 00d6 54B39957 		.ascii	"T\263\231W\336\267\343\013\363\235qN\227/-r\245\010"
 362      DEB7E30B 
 362      F39D714E 
 362      972F2D72 
 362      A508
 363 00e8 69636B13 		.ascii	"ick\023\321\246C\233\25061m\210\326y\352\2026\204\320"
 363      D1A6439B 
 363      A836316D 
 363      88D679EA 
 363      823684D0 
 364 00fc AB5C45DE 		.ascii	"\253\\E\336\333~\230\320\342y)9x\245R\257\205s\0155"
 364      DB7E98D0 
 364      E2792939 
 364      78A552AF 
 364      85730D35 
 365 0110 AAD45157 		.ascii	"\252\324QWrr:\346\024r\354n\3212D\220\006Gc\232V\340"
 365      72723AE6 
 365      1472EC6E 
 365      D1324490 
 365      0647639A 
ARM GAS  C:\Users\unyacat\AppData\Local\Temp\ccVMOIUr.s 			page 28


 366 0126 FFBEFDBE 		.ascii	"\377\276\375\276~\323x[\354]r\375\017\341-\341\312P"
 366      7ED3785B 
 366      EC5D72FD 
 366      0FE12DE1 
 366      CA50
 367 0138 507571AE 		.ascii	"Puq\256^\215\233cY\225\225&\3564>\375\260\306\361\330"
 367      5E8D9B63 
 367      59959526 
 367      EE343EFD 
 367      B0C6F1D8 
 368 014c 29C09536 		.ascii	")\300\2256^ \2012\270tLc\034\254\230\337-Vm#\0302\232"
 368      5E208132 
 368      B8744C63 
 368      1CAC98DF 
 368      2D566D23 
 369 0163 0F3E56BF 		.ascii	"\017>V\277H-\"\320t,\3140\315\330Nq\357\347g\030P\263"
 369      482D22D0 
 369      742CCC30 
 369      CDD84E71 
 369      EFE76718 
 370 0179 0CEE3EF2 		.ascii	"\014\356>\362'\242\006T[\204\227\001\350\227&\2724\265"
 370      27A20654 
 370      5B849701 
 370      E89726BA 
 370      34B5
 371 018b 2FB4A354 		.ascii	"/\264\243T\037\355\017?\313\341Y\311\324\264v\305\010"
 371      1FED0F3F 
 371      CBE159C9 
 371      D4B476C5 
 371      08
 372 019c 47DA25FC 		.ascii	"G\332%\374\312$\314\370f\013\357h\207\277\376\207/\376"
 372      CA24CCF8 
 372      660BEF68 
 372      87BFFE87 
 372      2FFE
 373 01ae BA6EF868 		.ascii	"\272n\370h;~\356\357{\264^#\306|\253x\277\204\003%\375"
 373      3B7EEEEF 
 373      7BB45E23 
 373      C67CAB78 
 373      BF840325 
 374 01c3 E7FD2628 		.ascii	"\347\375&('F\253(x\357j\2074N\007\272\033n\362/ \274"
 374      2746AB28 
 374      78EF6A87 
 374      344E07BA 
 374      1B6EF22F 
 375 01d9 E5EE723B 		.ascii	"\345\356r;]\031\2415\214x\225Z\320\344\3407\256s\373"
 375      5D19A135 
 375      8C78955A 
 375      D0E4E037 
 375      AE73FB
 376 01ec F99B30D5 		.ascii	"\371\2330\325u.=\230\316\\\314\246/]H\016\015gR\351"
 376      752E3D98 
 376      CE5CCCA6 
 376      2F5D480E 
 376      0D6752E9 
 377 0200 81FEE4D0 		.ascii	"\201\376\344\320\3313\003\251\033\375WO\246(~y0\233"
 377      D93303A9 
ARM GAS  C:\Users\unyacat\AppData\Local\Temp\ccVMOIUr.s 			page 29


 377      1BFD574F 
 377      A6287E79 
 377      309B
 378 0212 CE6486AF 		.ascii	"\316d\206\257e\223Y\206\376\000\220\322\013V"
 378      65935986 
 378      FE0090D2 
 378      0B56
 379              		.text
 380              		.section	.gnu.lto_.symbol_nodes.9235892d,"",%progbits
 381 0000 789C55CF 		.ascii	"x\234U\317\315\011\0021\020\206\341/\231l~v\265\006"
 381      CD090231 
 381      1086E12F 
 381      996C7E76 
 381      B506
 382 0012 B5206B9A 		.ascii	"\265 k\232\034D\301\223-\0106\241G\331\363\326\240\342"
 382      1C44C193 
 382      2D0836A1 
 382      47D9F3D6 
 382      A0E2
 383 0024 D11AC4D9 		.ascii	"\321\032\304\331u\004\347\364\361>!\201\0048\254\035"
 383      7504E7F4 
 383      F13E2181 
 383      0438AC1D 
 384 0034 000F060E 		.ascii	"\000\017\006\016\003\3069\327c%!b\367\243K]\011\004"
 384      03C639D7 
 384      63252162 
 384      F7A34B5D 
 384      0904
 385 0046 F6161A26 		.ascii	"\366\026\032&\013\211\203\205\314\215\205\302\321B\344"
 385      0B898385 
 385      CC8D85C2 
 385      D142E4
 386 0055 64A1E56C 		.ascii	"d\241\345l\300\315\270L\000\324\272\224\356\2705=\347"
 386      C0CDB84C 
 386      00D4BA94 
 386      EEB8353D 
 386      E7
 387 0066 EEBFC9B5 		.ascii	"\356\277\311\2658\335\336\216\\\301\363.\353\265}\207"
 387      38DDDE8E 
 387      5CC1F32E 
 387      EBB57D87 
 388 0076 7EF75A90 		.ascii	"~\367Z\220/\350\367\262\244.\177}L\253\036\324\203\364"
 388      2FE8F7B2 
 388      A42E7F7D 
 388      4CAB1ED4 
 388      83F4
 389 0088 563A6AC7 		.ascii	"V:j\307\362\275\237\264S\304u|?k\347\202\215\234\343"
 389      F2BD9FB4 
 389      53C4757C 
 389      3F6BE782 
 389      8D9CE3
 390 009b 030C4054 		.ascii	"\003\014@T\360"
 390      F0
 391              		.text
 392              		.section	.gnu.lto_.refs.9235892d,"",%progbits
 393 0000 789C6361 		.ascii	"x\234ca`\004B \000\000\0009\000\007"
 393      60044220 
ARM GAS  C:\Users\unyacat\AppData\Local\Temp\ccVMOIUr.s 			page 30


 393      00000039 
 393      0007
 394              		.text
 395              		.section	.gnu.lto_.decls.9235892d,"",%progbits
 396 0000 789C9D56 		.ascii	"x\234\235VYP\024W\024\355\327\015\003\314\214@\214\241"
 396      59501457 
 396      14EDD70D 
 396      03CC8C40 
 396      8CA1
 397 0012 F82089D1 		.ascii	"\370 \211\321\024\370e\005\265\254\374%\025\\\253\222"
 397      14F86505 
 397      B5ACFC25 
 397      155CAB92 
 398 0022 14154AFC 		.ascii	"\024\025J\374\261*\001\322&S\342@`H\205T>:\202\013."
 398      B12A01D2 
 398      2653E240 
 398      60488554 
 398      3E3A820B 
 399 0037 290C7143 		.ascii	")\014qCp\003\303\240l\"\242 \312 \213(\002\002.l\002"
 399      7003C3A0 
 399      6C22A220 
 399      CA208B28 
 399      02022E6C 
 400 004c 8A20FB22 		.ascii	"\212 \373\"F\203\004\315}K\323\335#\020\315+\356L\367"
 400      468304CD 
 400      7D4BD3DD 
 400      2310CD2B 
 400      EE4CF7
 401 005f 9B73CFB9 		.ascii	"\233s\317\271}\356\353\367p\340\020\207\307\027z\216"
 401      7DEEEBF7 
 401      70E01087 
 401      C7177A8E 
 402 006f 3B0897DF 		.ascii	";\010\227\337\010\034\367\022\006\334r\201\020<D&\204"
 402      081CF712 
 402      06DC7281 
 402      103C4426 
 402      84
 403 0080 0F478711 		.ascii	"\017G\207\021\"\027\"\017\"\037\342\002D\021D1D\011"
 403      2217220F 
 403      221FE202 
 403      44114431 
 403      4409
 404 0092 44294439 		.ascii	"D)D9D\015D\035D\003\367\352\300\371:\306\217y\233 \032"
 404      440D441D 
 404      4403F7EA 
 404      C0F93AC6 
 404      8F799B20 
 405 00a7 219A21EE 		.ascii	"!\232!\3560\014b8\373\201u]Xn\025\313o\201\270\251\312"
 405      300C6238 
 405      FB81755D 
 405      586E15CB 
 405      6F81B8A9 
 406 00bc 6F85A866 		.ascii	"o\205\250fx\201\345\324\261\232\354\007~\206\271\214"
 406      7881E5D4 
 406      B19AEC07 
 406      7E86B98C 
 407 00cc 0F7FCF83 		.ascii	"\017\177\317\203\270\245\342\366\236\206\277\007\242"
ARM GAS  C:\Users\unyacat\AppData\Local\Temp\ccVMOIUr.s 			page 31


 407      B8A5E2F6 
 407      9E86BF07 
 407      A2
 408 00d9 1BA29779 		.ascii	"\033\242\227ys\321N\323\201\361\312\317?\235.\366\315"
 408      73D14ED3 
 408      81F1CACF 
 408      3F9D2EF6 
 408      CD
 409 00ea D5EE39D4 		.ascii	"\325\3569\324Z}\020g\246\321\264\327\271\300trg\320"
 409      5A7D1067 
 409      A6D1B4D7 
 409      B9C07472 
 409      67D0
 410 00fc C1BD31DA 		.ascii	"\301\2751\332=_\346\033xW4\213w\270\347Nv\274>*\256"
 410      3D5FE61B 
 410      7857348B 
 410      77B8E74E 
 410      76BC3E2A 
 411 0111 4086430C 		.ascii	"@\206C\014\213\353\355\207\030\200\030\204\030\262\343"
 411      8BEBED87 
 411      18801884 
 411      18B2E3
 412 0120 C3EBE74D 		.ascii	"\303\353\347M{[2K}x-:s\312:\263\347\222=\226\271J\031"
 412      7B5B324B 
 412      7D782D3A 
 412      73CA3AB3 
 412      E7923D96 
 413 0137 57C9345C 		.ascii	"W\3114\\\345\377\243\266\362Yj\233\344\321\275\312\364"
 413      E5FFA3B6 
 413      F2596A9B 
 413      E4D1BDCA 
 413      F4
 414 0148 D3C2131E 		.ascii	"\323\302\023\036\371\350\021~\343\334`*{\240`|\016\235"
 414      F9E8117E 
 414      E3DC602A 
 414      7BA0607C 
 414      0E9D
 415 015a C288F671 		.ascii	"\302\210\366q\353\252\305\031\022\214xI\342y%\365z{"
 415      EBAAC519 
 415      128C7849 
 415      E27925F5 
 415      7A7B
 416 016c D76317C1 		.ascii	"\327c\027\301@@u\2619I\230f\256\0369\300\355hub\247"
 416      404075B1 
 416      39499866 
 416      AE1E39C0 
 416      ED687562 
 417 0181 2BDCCED3 		.ascii	"+\334\316\323\243\371\223<\237\237rt\314\021\351\027"
 417      A3F9933C 
 417      9F9F7274 
 417      CC11E917 
 418 0191 ED90A42D 		.ascii	"\355\220\244-R|\2144\267\322\225C\031\310\013\235F^"
 418      527C8C34 
 418      B7D29543 
 418      19C80B9D 
 418      465E
 419 01a3 1CCA428B 		.ascii	"\034\312B\213\260V:Z\314!+L\246\301\344\237X\257\343"
ARM GAS  C:\Users\unyacat\AppData\Local\Temp\ccVMOIUr.s 			page 32


 419      B0563A5A 
 419      CC212B4C 
 419      A6C1E49F 
 419      58AFE3
 420 01b6 F6934F0A 		.ascii	"\366\223O\012$\311\035e\"=:\205\004\002\201N\372\340"
 420      24C91D65 
 420      223D3A85 
 420      0402814E 
 420      FAE0
 421 01c8 7D014F82 		.ascii	"}\001O\202\222\265aL\322\267\240&$pl\023\341\020\242"
 421      92B5614C 
 421      D2B7A026 
 421      24706C13 
 421      E110A2
 422 01db 9F880447 		.ascii	"\237\210\004G\203\334\302\005\317\321\013yjjp\210\376"
 422      83DCC205 
 422      CFD10B79 
 422      6A6A7088 
 422      FE
 423 01ec C2B3594E 		.ascii	"\302\263YN!#\177,\237\270D\006!Q\330\021KBS\025\220"
 423      21237F2C 
 423      9FB84406 
 423      2151D811 
 423      4B425315 
 424 0201 9F69129A 		.ascii	"\237i\022\232b\245_\274\222\241\342\263\253H\256Y\226"
 424      62A55FBC 
 424      92A1E2B3 
 424      AB48AE59 
 424      96
 425 0212 E178D9F9 		.ascii	"\341x\331\371\312\272\274\337ya\031q~\362\332\341D\336"
 425      CABABCDF 
 425      79611971 
 425      7EF2DAE1 
 425      44DE
 426 0224 733FE94F 		.ascii	"s?\351O\2144\337\001\005zLY\313\2413\310\023>\203\035"
 426      8C34DF01 
 426      057A4C59 
 426      CBA133C8 
 426      133E831D 
 427 0238 685EF78D 		.ascii	"h^\367\215\347\211s\026\034\223l9\340m\2058\226\266"
 427      E7897316 
 427      1C936C39 
 427      E06D8538 
 427      96B6
 428 024a 4D8AFF55 		.ascii	"M\212\377U\222\326\020\034\312Q\034\316\301vr(\033\265"
 428      92D6101C 
 428      CA511CCE 
 428      C1767228 
 428      1BB5
 429 025c 80742E5A 		.ascii	"\200t.Z\200[\272c\337\021$\374@4\237\367\334\335\352"
 429      805BBA63 
 429      DF1124FC 
 429      40349FF7 
 429      DCDDEA
 430 026f 063CC780 		.ascii	"\006<\307\200g\362\352\207\373c\244J\220\237OX\316*"
 430      67F2EA87 
 430      FB63A44A 
ARM GAS  C:\Users\unyacat\AppData\Local\Temp\ccVMOIUr.s 			page 33


 430      909F4F58 
 430      CE2A
 431 0281 2C67D52C 		.ascii	",g\325,y\204\245*\343Y\215NHF\204&q(\367\261\013\245"
 431      7984A52A 
 431      E3598D4E 
 431      48468426 
 431      7128F7B1 
 432 0297 B1C55718 		.ascii	"\261\305W\030I-\237\022\222s\012\31195I>!\311M\255)"
 432      492D9F12 
 432      92730AC9 
 432      3935493E 
 432      21C94DAD 
 433 02ac 17842C4A 		.ascii	"\027\204,J\262\247\264\3737GF2\272k\316!\311\026\013"
 433      B2A7B4FB 
 433      37474632 
 433      BA6BCE21 
 433      C9160B
 434 02bf B5F084E6 		.ascii	"\265\360\204\346\274Bs^Ms\201\320\334\256\237\334m\020"
 434      BC42735E 
 434      4D7381D0 
 434      DCAE9FDC 
 434      6D10
 435 02d1 8A29CDE0 		.ascii	"\212)\315\340\360\321j'\007\236\256+l\030\314\3755v"
 435      F0D16A27 
 435      079EAE2B 
 435      6C18CCFD 
 435      3576
 436 02e3 ACCF7946 		.ascii	"\254\317yFk/\022k\013\021\363\366\306\323\253\355r\035"
 436      6B2F126B 
 436      0B11F3F6 
 436      C6D3ABED 
 436      721D
 437 02f5 F10DF2C3 		.ascii	"\361\015\362\303\000\010\025(U\024\250\253(\"U\234\272"
 437      00081528 
 437      5514A8AB 
 437      2822559C 
 437      BA
 438 0306 9737E422 		.ascii	"\2277\344\"4\322*\006\352\232:\015jE\\\214\"yY\323\315"
 438      34D22A06 
 438      EA9A3A0D 
 438      6A455C8C 
 438      227959D3 
 439 031b BA86D493 		.ascii	"\272\206\324\223z\2468\236\340:\365\344\200B\227\024"
 439      7AA6389E 
 439      E03AF5E4 
 439      80429714 
 440 032b CD4B6ACD 		.ascii	"\315Kj\315b\2429\231R\273\333E\030\242\232\215ic\303"
 440      62A23999 
 440      52BBDB45 
 440      18A29A8D 
 440      6963C3
 441 033e B8F00EA0 		.ascii	"\270\360\016\240I>\2405\320\246\320\330\3244%\264\231"
 441      493EA035 
 441      D0A6D0D8 
 441      D43425B4 
 441      99
 442 034f 1DDB1FE8 		.ascii	"\035\333\037\350\205\027\224\346okz\033\317\252\271"
ARM GAS  C:\Users\unyacat\AppData\Local\Temp\ccVMOIUr.s 			page 34


 442      851794E6 
 442      6F6B7A1B 
 442      CFAAB9
 443 035e 53AB6EE6 		.ascii	"S\253n\346\025\205\344\212\232\244\224\220\214\2645"
 443      1585E48A 
 443      9AA49490 
 443      8CB435
 444 036d EB849D3C 		.ascii	"\353\204\235<]\020\326\212A\003\343hmVs\224)\034ej\216"
 444      5D10D68A 
 444      4103E368 
 444      6D567394 
 444      291C656A 
 445 0382 72C251DC 		.ascii	"r\302Q\334{=M\020\222(I\366\326\207\351\316\260\367"
 445      7B3D4D10 
 445      922849F6 
 445      D687E9CE 
 445      B0F7
 446 0394 78C18E86 		.ascii	"x\301\216\206T\333\231\027\335\316\016\355\355|a\020"
 446      54DB9917 
 446      DDCE0EED 
 446      ED7C6110 
 447 03a4 7209966F 		.ascii	"r\011\226o\350<\335\353\200\026\351\331v3@\267\233*"
 447      E83CDDEB 
 447      8016E9D9 
 447      763340B7 
 447      9B2A
 448 03b6 30FD9A22 		.ascii	"0\375\232\"\350\205\267\033\262u\215\234\220t\236\034"
 448      E885B71B 
 448      B2758D9C 
 448      90749E1C 
 449 03c6 5AEA853E 		.ascii	"Z\352\205>\202}\353:\354[^l\337\252\204\036]\205\036"
 449      827DEB3A 
 449      EC5B5E6C 
 449      DFAA841E 
 449      5D851E
 450 03d9 8140D781 		.ascii	"\201@\327\201\243\375:\262\222\252\246VRFa\353\200n"
 450      A3FD3AB2 
 450      92AAA656 
 450      524661EB 
 450      806E
 451 03eb C695544D 		.ascii	"\306\225TM\332zC^I\235)\207wc\027:\240\244\321\206_"
 451      DA7A435E 
 451      499D2987 
 451      7763173A 
 451      A0A4D186 
 452 0400 C672A558 		.ascii	"\306r\245X\027\214A\025JM\025\304\004\270\250!\006d"
 452      178C4115 
 452      4A4D15C4 
 452      04B8A821 
 452      0664
 453 0412 5C4C9E70 		.ascii	"\\L\236p\026\032\251\0017w\225\307\270\251\305\2524"
 453      161AA901 
 453      377795C7 
 453      B8A9C5AA 
 453      34
 454 0423 8BE8A666 		.ascii	"\213\350\246f\021YS\023N\350\250\230m\244\326h\213G"
 454      11595313 
ARM GAS  C:\Users\unyacat\AppData\Local\Temp\ccVMOIUr.s 			page 35


 454      4EE8A898 
 454      6DA4D668 
 454      8B47
 455 0435 18806A15 		.ascii	"\030\200j\025\251ZY\252\216H\355J\353nr\022\206\251"
 455      A95A59AA 
 455      8E48ED4A 
 455      EB6E7212 
 455      86A9
 456 0447 9475C7AE 		.ascii	"\224u\307\256,W\226}~\273pH\272\342@\226|\275\222^/"
 456      2C57967D 
 456      7EBB7048 
 456      BAE24096 
 456      7CBD925E 
 457 045c A73790F4 		.ascii	"\2477\220\364\302\214\354\203\202\036\334\214y\275\203"
 457      C28CEC83 
 457      821EDC8C 
 457      79BD83
 458 046b 00A7B449 		.ascii	"\000\247\264II\216\3026\201t\254\340B\177\206+=J\246"
 458      498EC236 
 458      8174ACE0 
 458      427F862B 
 458      3D4AA6
 459 047e 61B83BF3 		.ascii	"a\270;\363QR\024\2707\016/\353;`\306m\245\274[HO\215"
 459      515214B8 
 459      370E2FEB 
 459      3B60C66D 
 459      A5BC5B48 
 460 0494 48181EDD 		.ascii	"H\030\036\3353UX\374\177\323BJ\351\221\324\273s\214"
 460      335558FC 
 460      7FD3424A 
 460      E991D4BB 
 460      738C
 461 04a6 3B95430D 		.ascii	";\225C\0155j\234nBF\362\344\360\015\350\374\312\272"
 461      356A9C6E 
 461      4246F2E4 
 461      F00DE8FC 
 461      CABA
 462 04b8 734E1AF4 		.ascii	"sN\032\364\035\015\272\231\241\233\011:\253,\356\024"
 462      1D0DBA99 
 462      A19B093A 
 462      AB2CEE14 
 463 04c8 AF41E3B6 		.ascii	"\257A\343\266(\350\026\206n!\350\366\326\270N\203\006"
 463      28E81686 
 463      6E21E8F6 
 463      D6B84E83 
 463      06
 464 04d9 5DAD41B7 		.ascii	"]\255A\2672t+A\237|>1\202\017ko|\346\013\252W\304\233"
 464      32742B41 
 464      9F7C3E31 
 464      820F6B6F 
 464      7CE60BAA 
 465 04f0 BE22D6E3 		.ascii	"\276\"\326\343\025g\365\302nb8*\177\371\314\346FOv\036"
 465      1567F5C2 
 465      6E62382A 
 465      7FF9CCE6 
 465      464F761E 
 466 0504 6EEB476E 		.ascii	"n\353Gn$\033\350\311\356\016\355H\372\243$S'\237\354"
ARM GAS  C:\Users\unyacat\AppData\Local\Temp\ccVMOIUr.s 			page 36


 466      241BE8C9 
 466      EE0EED48 
 466      FAA32453 
 466      279FEC
 467 0517 609DDE0A 		.ascii	"`\235\336\012\276\335\007\335\016\354['\370\346\315"
 467      BEDD07DD 
 467      0EEC5B27 
 467      F8E6CD
 468 0526 7C6B83C9 		.ascii	"|k\203\311{r;l\343\355^\222\344\214\036\200\003\355"
 468      7B723B6C 
 468      E3ED5E92 
 468      E48C1E80 
 468      03ED
 469 0538 4A33BC59 		.ascii	"J3\274Y/\016v\216>r\242\275x-NH\371\307V\363\266\220"
 469      2F0E768E 
 469      3E72A2BD 
 469      782D4E48 
 469      F9C756F3 
 470 054e 40D7C8FD 		.ascii	"@\327\310\375\330$\340fk\344\025\202G3\026\225\334\277"
 470      D824E066 
 470      6BE41582 
 470      47331695 
 470      DCBF
 471 0560 06B63E84 		.ascii	"\006\266>\204\272\241\252.\245\252\207\362\022\261\326"
 471      BAA1AA2E 
 471      A5AA87F2 
 471      12B1D6
 472 056f BE8C73D5 		.ascii	"\276\214s\325\270\334\255\351`\017s\271\207\270\374"
 472      B8DCADE9 
 472      600F73B9 
 472      87B8FC
 473 057e EC72D788 		.ascii	"\354r\327\210\266\337\0275=\351e\350^\202\236\350\312"
 473      B6DF1735 
 473      3DE965E8 
 473      5E829EE8 
 473      CA
 474 058f 7E64D4A0 		.ascii	"~d\324\240\317h\320}\310(\327\323G\022\036\017\244\214"
 474      CF68D07D 
 474      C828D7D3 
 474      47121E0F 
 474      A48C
 475 05a1 090B8FD3 		.ascii	"\011\013\217\323\377\313v\302\2775\201\036d{\247/[?"
 475      FFCB76C2 
 475      BF35811E 
 475      647BA72F 
 475      5B3F
 476 05b3 5A887DBC 		.ascii	"Z\210}\274^\370\324@1pN\257\334\027\003@-n\200\340\312"
 476      5EF8D440 
 476      31704EAF 
 476      DC170340 
 476      2D6E80E0 
 477 05c8 E2EA275C 		.ascii	"\342\352'\\(\316\226\343a\217\031$\230-\322\275\313"
 477      28CE96E3 
 477      618F1924 
 477      982DD2BD 
 477      CB
 478 05d9 4686297C 		.ascii	"F\206)|\0053\204\026r\316\253\277\\7\337\317\327\227"
ARM GAS  C:\Users\unyacat\AppData\Local\Temp\ccVMOIUr.s 			page 37


 478      05338416 
 478      72CEABBF 
 478      5C37DFCF 
 478      D797
 479 05eb D34599CC 		.ascii	"\323E\231\314\226\245K>X-\232\305\210 \213\370\355\327"
 479      96A54B3E 
 479      582D9AC5 
 479      88208BF8 
 479      EDD7
 480 05fd 01615111 		.ascii	"\001aQ\021!\342\006\377\2000\277e\033B\242-\321\341"
 480      21E206FF 
 480      8030BF65 
 480      1B42A22D 
 480      D1E1
 481 060f 62E4E2EF 		.ascii	"b\344\342\357\271w\375\242\003\242#\3757\2571\005\373"
 481      B977FDA2 
 481      03A223FD 
 481      37AF3105 
 481      FB
 482 0620 9BCC912B 		.ascii	"\233\314\221+L\221A\301\241\342Zsx\224\345\263\250\215"
 482      4C9141C1 
 482      A1E25A73 
 482      7894E5B3 
 482      A88D
 483 0632 EFCD98EF 		.ascii	"\357\315\230\357\277\031\222\215,9 T\024\303g\305\206"
 483      BF19928D 
 483      2C392054 
 483      14C367C5 
 483      86
 484 0643 70EE0CBB 		.ascii	"p\356\014\273\002\240\004\357\256(\213\021f\310\363"
 484      02A004EF 
 484      AE288B11 
 484      66C8F3
 485 0652 94D944CB 		.ascii	"\224\331D\313\372\240MbT\270\177XhP\204\311\022\375"
 485      FAA04D62 
 485      54B87F58 
 485      685084C9 
 485      12FD
 486 0664 0EFB61B5 		.ascii	"\016\373a\265h\371J\214\304\037A\221af76\273*B\024\177"
 486      68F94A8C 
 486      C41F4191 
 486      61663736 
 486      BB2A4214 
 487 0679 16D78619 		.ascii	"\026\327\206\031\344tKX\370[\354z\235y#\373\0258V\376"
 487      E4744B58 
 487      F85BEC7A 
 487      9D7923FB 
 487      153856FE 
 488 068d 64B2F801 		.ascii	"d\262\370\001\237)$(4@\014\261\230\302\314\216\330\246"
 488      9F292428 
 488      34400CB1 
 488      98C2CC8E 
 488      D8A6
 489 069f 8FDF9FA1 		.ascii	"\217\337\237\241r\277\350\317M\301\360\230\036\220k"
 489      72BFE8CF 
 489      4DC1F098 
 489      1E906B
ARM GAS  C:\Users\unyacat\AppData\Local\Temp\ccVMOIUr.s 			page 38


 490 06ae B6881176 		.ascii	"\266\210\021v\311\036D\304/t\323z\230\027\3412$t\323"
 490      C91E44C4 
 490      2F74D37A 
 490      9817E132 
 490      2474D3
 491 06c1 0AD38F8E 		.ascii	"\012\323\217\216\021\342wK\227\220\006\370.\3077\276"
 491      11E2774B 
 491      979006F8 
 491      2EC737BE 
 492 06d1 CBFF0518 		.ascii	"\313\377\005\030\232\374\207"
 492      9AFC87
 493              		.text
 494              		.section	.gnu.lto_.symtab.9235892d,"",%progbits
 495 0000 43795379 		.ascii	"CySysPmSleep\000"
 495      73506D53 
 495      6C656570 
 495      00
 496 000d 00       		.ascii	"\000"
 497 000e 00       		.ascii	"\000"
 498 000f 00       		.ascii	"\000"
 499 0010 00000000 		.ascii	"\000\000\000\000\000\000\000\000"
 499      00000000 
 500 0018 B4000000 		.ascii	"\264\000\000\000"
 501 001c 43795379 		.ascii	"CySysPmDeepSleep\000"
 501      73506D44 
 501      65657053 
 501      6C656570 
 501      00
 502 002d 00       		.ascii	"\000"
 503 002e 00       		.ascii	"\000"
 504 002f 00       		.ascii	"\000"
 505 0030 00000000 		.ascii	"\000\000\000\000\000\000\000\000"
 505      00000000 
 506 0038 B6000000 		.ascii	"\266\000\000\000"
 507 003c 43795379 		.ascii	"CySysPmHibernate\000"
 507      73506D48 
 507      69626572 
 507      6E617465 
 507      00
 508 004d 00       		.ascii	"\000"
 509 004e 00       		.ascii	"\000"
 510 004f 00       		.ascii	"\000"
 511 0050 00000000 		.ascii	"\000\000\000\000\000\000\000\000"
 511      00000000 
 512 0058 B8000000 		.ascii	"\270\000\000\000"
 513 005c 43795379 		.ascii	"CySysPmSetWakeupPolarity\000"
 513      73506D53 
 513      65745761 
 513      6B657570 
 513      506F6C61 
 514 0075 00       		.ascii	"\000"
 515 0076 00       		.ascii	"\000"
 516 0077 00       		.ascii	"\000"
 517 0078 00000000 		.ascii	"\000\000\000\000\000\000\000\000"
 517      00000000 
 518 0080 BC000000 		.ascii	"\274\000\000\000"
 519 0084 43795379 		.ascii	"CySysPmGetResetReason\000"
ARM GAS  C:\Users\unyacat\AppData\Local\Temp\ccVMOIUr.s 			page 39


 519      73506D47 
 519      65745265 
 519      73657452 
 519      6561736F 
 520 009a 00       		.ascii	"\000"
 521 009b 00       		.ascii	"\000"
 522 009c 00       		.ascii	"\000"
 523 009d 00000000 		.ascii	"\000\000\000\000\000\000\000\000"
 523      00000000 
 524 00a5 BF000000 		.ascii	"\277\000\000\000"
 525 00a9 43795379 		.ascii	"CySysPmFreezeIo\000"
 525      73506D46 
 525      7265657A 
 525      65496F00 
 526 00b9 00       		.ascii	"\000"
 527 00ba 00       		.ascii	"\000"
 528 00bb 00       		.ascii	"\000"
 529 00bc 00000000 		.ascii	"\000\000\000\000\000\000\000\000"
 529      00000000 
 530 00c4 C1000000 		.ascii	"\301\000\000\000"
 531 00c8 43795379 		.ascii	"CySysPmStop\000"
 531      73506D53 
 531      746F7000 
 532 00d4 00       		.ascii	"\000"
 533 00d5 00       		.ascii	"\000"
 534 00d6 00       		.ascii	"\000"
 535 00d7 00000000 		.ascii	"\000\000\000\000\000\000\000\000"
 535      00000000 
 536 00df C3000000 		.ascii	"\303\000\000\000"
 537 00e3 43795379 		.ascii	"CySysPmUnfreezeIo\000"
 537      73506D55 
 537      6E667265 
 537      657A6549 
 537      6F00
 538 00f5 00       		.ascii	"\000"
 539 00f6 00       		.ascii	"\000"
 540 00f7 00       		.ascii	"\000"
 541 00f8 00000000 		.ascii	"\000\000\000\000\000\000\000\000"
 541      00000000 
 542 0100 C5000000 		.ascii	"\305\000\000\000"
 543 0104 43794578 		.ascii	"CyExitCriticalSection\000"
 543      69744372 
 543      69746963 
 543      616C5365 
 543      6374696F 
 544 011a 00       		.ascii	"\000"
 545 011b 02       		.ascii	"\002"
 546 011c 00       		.ascii	"\000"
 547 011d 00000000 		.ascii	"\000\000\000\000\000\000\000\000"
 547      00000000 
 548 0125 CE000000 		.ascii	"\316\000\000\000"
 549 0129 4379456E 		.ascii	"CyEnterCriticalSection\000"
 549      74657243 
 549      72697469 
 549      63616C53 
 549      65637469 
 550 0140 00       		.ascii	"\000"
ARM GAS  C:\Users\unyacat\AppData\Local\Temp\ccVMOIUr.s 			page 40


 551 0141 02       		.ascii	"\002"
 552 0142 00       		.ascii	"\000"
 553 0143 00000000 		.ascii	"\000\000\000\000\000\000\000\000"
 553      00000000 
 554 014b D1000000 		.ascii	"\321\000\000\000"
 555 014f 43795379 		.ascii	"CySysClkWriteSysclkDiv\000"
 555      73436C6B 
 555      57726974 
 555      65537973 
 555      636C6B44 
 556 0166 00       		.ascii	"\000"
 557 0167 02       		.ascii	"\002"
 558 0168 00       		.ascii	"\000"
 559 0169 00000000 		.ascii	"\000\000\000\000\000\000\000\000"
 559      00000000 
 560 0171 D3000000 		.ascii	"\323\000\000\000"
 561              		.text
 562              		.section	.gnu.lto_.opts,"",%progbits
 563 0000 272D666D 		.ascii	"'-fmath-errno' '-fsigned-zeros' '-ftrapping-math' '"
 563      6174682D 
 563      6572726E 
 563      6F272027 
 563      2D667369 
 564 0033 2D666E6F 		.ascii	"-fno-trapv' '-fno-openmp' '-fno-openacc' '-mcpu=cor"
 564      2D747261 
 564      70762720 
 564      272D666E 
 564      6F2D6F70 
 565 0066 7465782D 		.ascii	"tex-m0' '-mthumb' '-g' '-O3' '-ffunction-sections' "
 565      6D302720 
 565      272D6D74 
 565      68756D62 
 565      2720272D 
 566 0099 272D6666 		.ascii	"'-ffat-lto-objects' '-finline-functions' '-flto'\000"
 566      61742D6C 
 566      746F2D6F 
 566      626A6563 
 566      74732720 
 567              		.text
 568              		.cfi_sections	.debug_frame
 569              		.section	.text.CySysPmSleep,"ax",%progbits
 570              		.align	2
 571              		.global	CySysPmSleep
 572              		.code	16
 573              		.thumb_func
 574              		.type	CySysPmSleep, %function
 575              	CySysPmSleep:
 576              	.LFB3:
 577              		.file 1 "Generated_Source\\PSoC4\\cyPm.c"
   1:Generated_Source\PSoC4/cyPm.c **** /***************************************************************************//**
   2:Generated_Source\PSoC4/cyPm.c **** * \file cyPm.c
   3:Generated_Source\PSoC4/cyPm.c **** * \version 6.0
   4:Generated_Source\PSoC4/cyPm.c **** *
   5:Generated_Source\PSoC4/cyPm.c **** * \brief Provides an API for the power management.
   6:Generated_Source\PSoC4/cyPm.c **** *
   7:Generated_Source\PSoC4/cyPm.c **** * \note Documentation of the API's in this file is located in the System
   8:Generated_Source\PSoC4/cyPm.c **** * Reference Guide provided with PSoC Creator.
ARM GAS  C:\Users\unyacat\AppData\Local\Temp\ccVMOIUr.s 			page 41


   9:Generated_Source\PSoC4/cyPm.c **** *
  10:Generated_Source\PSoC4/cyPm.c **** ********************************************************************************
  11:Generated_Source\PSoC4/cyPm.c **** * \copyright
  12:Generated_Source\PSoC4/cyPm.c **** * Copyright 2011-2018, Cypress Semiconductor Corporation.  All rights reserved.
  13:Generated_Source\PSoC4/cyPm.c **** * You may use this file only in accordance with the license, terms, conditions,
  14:Generated_Source\PSoC4/cyPm.c **** * disclaimers, and limitations in the end user license agreement accompanying
  15:Generated_Source\PSoC4/cyPm.c **** * the software package with which this file was provided.
  16:Generated_Source\PSoC4/cyPm.c **** *******************************************************************************/
  17:Generated_Source\PSoC4/cyPm.c **** 
  18:Generated_Source\PSoC4/cyPm.c **** #include "cyPm.h"
  19:Generated_Source\PSoC4/cyPm.c **** #include "CyLib.h"
  20:Generated_Source\PSoC4/cyPm.c **** #include "CyFlash.h"
  21:Generated_Source\PSoC4/cyPm.c **** 
  22:Generated_Source\PSoC4/cyPm.c **** 
  23:Generated_Source\PSoC4/cyPm.c **** /*******************************************************************************
  24:Generated_Source\PSoC4/cyPm.c **** * Function Name: CySysPmSleep
  25:Generated_Source\PSoC4/cyPm.c **** ****************************************************************************//**
  26:Generated_Source\PSoC4/cyPm.c **** *
  27:Generated_Source\PSoC4/cyPm.c **** * Puts the part into the Sleep state. This is a CPU-centric power mode.
  28:Generated_Source\PSoC4/cyPm.c **** * It means that the CPU has indicated that it is in the sleep mode and
  29:Generated_Source\PSoC4/cyPm.c **** * its main clock can be removed. It is identical to Active from a peripheral
  30:Generated_Source\PSoC4/cyPm.c **** * point of view. Any enabled interrupts can cause wakeup from the Sleep mode.
  31:Generated_Source\PSoC4/cyPm.c **** *
  32:Generated_Source\PSoC4/cyPm.c **** *******************************************************************************/
  33:Generated_Source\PSoC4/cyPm.c **** void CySysPmSleep(void)
  34:Generated_Source\PSoC4/cyPm.c **** {
 578              		.loc 1 34 0
 579              		.cfi_startproc
 580              		@ args = 0, pretend = 0, frame = 0
 581              		@ frame_needed = 0, uses_anonymous_args = 0
 582 0000 10B5     		push	{r4, lr}
 583              		.cfi_def_cfa_offset 8
 584              		.cfi_offset 4, -8
 585              		.cfi_offset 14, -4
  35:Generated_Source\PSoC4/cyPm.c ****     uint8 interruptState;
  36:Generated_Source\PSoC4/cyPm.c **** 
  37:Generated_Source\PSoC4/cyPm.c ****     interruptState = CyEnterCriticalSection();
 586              		.loc 1 37 0
 587 0002 FFF7FEFF 		bl	CyEnterCriticalSection
 588              	.LVL0:
  38:Generated_Source\PSoC4/cyPm.c **** 
  39:Generated_Source\PSoC4/cyPm.c ****     /* CPU enters Sleep mode upon execution of WFI */
  40:Generated_Source\PSoC4/cyPm.c ****     CY_PM_CPU_SCR_REG &= (uint32) (~CY_PM_CPU_SCR_SLEEPDEEP);
 589              		.loc 1 40 0
 590 0006 0421     		movs	r1, #4
 591 0008 034A     		ldr	r2, .L2
 592 000a 1368     		ldr	r3, [r2]
 593 000c 8B43     		bics	r3, r1
 594 000e 1360     		str	r3, [r2]
  41:Generated_Source\PSoC4/cyPm.c **** 
  42:Generated_Source\PSoC4/cyPm.c ****     /* Sleep and wait for interrupt */
  43:Generated_Source\PSoC4/cyPm.c ****     CY_PM_WFI;
 595              		.loc 1 43 0
 596              		.syntax divided
 597              	@ 43 "Generated_Source\PSoC4\cyPm.c" 1
 598 0010 30BF     		WFI 
 599              	
ARM GAS  C:\Users\unyacat\AppData\Local\Temp\ccVMOIUr.s 			page 42


 600              	@ 0 "" 2
  44:Generated_Source\PSoC4/cyPm.c **** 
  45:Generated_Source\PSoC4/cyPm.c ****     CyExitCriticalSection(interruptState);
 601              		.loc 1 45 0
 602              		.thumb
 603              		.syntax unified
 604 0012 FFF7FEFF 		bl	CyExitCriticalSection
 605              	.LVL1:
  46:Generated_Source\PSoC4/cyPm.c **** }
 606              		.loc 1 46 0
 607              		@ sp needed
 608 0016 10BD     		pop	{r4, pc}
 609              	.L3:
 610              		.align	2
 611              	.L2:
 612 0018 10ED00E0 		.word	-536810224
 613              		.cfi_endproc
 614              	.LFE3:
 615              		.size	CySysPmSleep, .-CySysPmSleep
 616              		.section	.text.CySysPmDeepSleep,"ax",%progbits
 617              		.align	2
 618              		.global	CySysPmDeepSleep
 619              		.code	16
 620              		.thumb_func
 621              		.type	CySysPmDeepSleep, %function
 622              	CySysPmDeepSleep:
 623              	.LFB4:
  47:Generated_Source\PSoC4/cyPm.c **** 
  48:Generated_Source\PSoC4/cyPm.c **** 
  49:Generated_Source\PSoC4/cyPm.c **** /*******************************************************************************
  50:Generated_Source\PSoC4/cyPm.c **** * Function Name: CySysPmDeepSleep
  51:Generated_Source\PSoC4/cyPm.c **** ****************************************************************************//**
  52:Generated_Source\PSoC4/cyPm.c **** *
  53:Generated_Source\PSoC4/cyPm.c **** * Puts the part into the Deep Sleep state. If the firmware attempts to enter
  54:Generated_Source\PSoC4/cyPm.c **** * this mode before the system is ready (that is, when
  55:Generated_Source\PSoC4/cyPm.c **** * PWR_CONTROL.LPM_READY = 0), then the device will go into the Sleep mode
  56:Generated_Source\PSoC4/cyPm.c **** * instead and automatically enter the originally intended mode when the
  57:Generated_Source\PSoC4/cyPm.c **** * holdoff expires.
  58:Generated_Source\PSoC4/cyPm.c **** *
  59:Generated_Source\PSoC4/cyPm.c **** * The wakeup occurs when an interrupt is received from a DeepSleep or
  60:Generated_Source\PSoC4/cyPm.c **** * Hibernate peripheral. For more details, see a corresponding
  61:Generated_Source\PSoC4/cyPm.c **** * peripheral's datasheet.
  62:Generated_Source\PSoC4/cyPm.c **** *
  63:Generated_Source\PSoC4/cyPm.c **** *******************************************************************************/
  64:Generated_Source\PSoC4/cyPm.c **** void CySysPmDeepSleep(void)
  65:Generated_Source\PSoC4/cyPm.c **** {
 624              		.loc 1 65 0
 625              		.cfi_startproc
 626              		@ args = 0, pretend = 0, frame = 8
 627              		@ frame_needed = 0, uses_anonymous_args = 0
 628 0000 30B5     		push	{r4, r5, lr}
 629              		.cfi_def_cfa_offset 12
 630              		.cfi_offset 4, -12
 631              		.cfi_offset 5, -8
 632              		.cfi_offset 14, -4
 633 0002 83B0     		sub	sp, sp, #12
 634              		.cfi_def_cfa_offset 24
ARM GAS  C:\Users\unyacat\AppData\Local\Temp\ccVMOIUr.s 			page 43


  66:Generated_Source\PSoC4/cyPm.c ****     uint8 interruptState;
  67:Generated_Source\PSoC4/cyPm.c ****     #if(CY_IP_SRSSV2)
  68:Generated_Source\PSoC4/cyPm.c ****         volatile uint32 clkSelectReg;
  69:Generated_Source\PSoC4/cyPm.c ****     #endif /* (CY_IP_SRSSV2) */
  70:Generated_Source\PSoC4/cyPm.c ****     
  71:Generated_Source\PSoC4/cyPm.c ****     #if(CY_IP_ECO_SRSSLT)
  72:Generated_Source\PSoC4/cyPm.c ****         volatile uint32 pllResoreFlag = 0u;
  73:Generated_Source\PSoC4/cyPm.c ****     #endif /* (CY_IP_ECO_SRSSLT) */
  74:Generated_Source\PSoC4/cyPm.c **** 
  75:Generated_Source\PSoC4/cyPm.c ****     #if (CY_IP_IMO_TRIMMABLE_BY_WCO)
  76:Generated_Source\PSoC4/cyPm.c ****         uint32 regTmp = 0u;
  77:Generated_Source\PSoC4/cyPm.c ****     #endif /* (CY_IP_IMO_TRIMMABLE_BY_WCO) */
  78:Generated_Source\PSoC4/cyPm.c ****     
  79:Generated_Source\PSoC4/cyPm.c ****     interruptState = CyEnterCriticalSection();
 635              		.loc 1 79 0
 636 0004 FFF7FEFF 		bl	CyEnterCriticalSection
 637              	.LVL2:
  80:Generated_Source\PSoC4/cyPm.c **** 
  81:Generated_Source\PSoC4/cyPm.c ****     #if(CY_IP_ECO_SRSSLT)
  82:Generated_Source\PSoC4/cyPm.c ****         if(0u != (CY_SYS_ECO_CLK_SELECT_REG & CY_SYS_ECO_CLK_SELECT_ECO_PLL_MASK))
  83:Generated_Source\PSoC4/cyPm.c ****         {
  84:Generated_Source\PSoC4/cyPm.c ****             pllResoreFlag = 1u;
  85:Generated_Source\PSoC4/cyPm.c ****             
  86:Generated_Source\PSoC4/cyPm.c ****             /* Set default state = IMO for HFCLK_SEL bit mask */
  87:Generated_Source\PSoC4/cyPm.c ****             CY_SYS_CLK_SELECT_REG &= (uint32)(~CY_SYS_CLK_SELECT_DIRECT_SEL_MASK);
  88:Generated_Source\PSoC4/cyPm.c ****         }
  89:Generated_Source\PSoC4/cyPm.c ****     #endif /* (CY_IP_ECO_SRSSLT) */
  90:Generated_Source\PSoC4/cyPm.c **** 
  91:Generated_Source\PSoC4/cyPm.c ****     #if(CY_IP_SRSSV2)
  92:Generated_Source\PSoC4/cyPm.c ****         /* Device enters DeepSleep mode when CPU asserts SLEEPDEEP signal */
  93:Generated_Source\PSoC4/cyPm.c ****         CY_PM_PWR_CONTROL_REG &= (uint32) (~CY_PM_PWR_CONTROL_HIBERNATE);
 638              		.loc 1 93 0
 639 0008 0E4A     		ldr	r2, .L5
  94:Generated_Source\PSoC4/cyPm.c ****     #endif /* (CY_IP_SRSSV2) */
  95:Generated_Source\PSoC4/cyPm.c **** 
  96:Generated_Source\PSoC4/cyPm.c ****     #if (CY_IP_CPUSS && CY_IP_SRSSV2)
  97:Generated_Source\PSoC4/cyPm.c ****         CY_PM_CPUSS_CONFIG_REG |= CY_PM_CPUSS_CONFIG_FLSH_ACC_BYPASS;
  98:Generated_Source\PSoC4/cyPm.c ****     #endif /* (CY_IP_CPUSS && CY_IP_SRSSV2) */
  99:Generated_Source\PSoC4/cyPm.c ****     
 100:Generated_Source\PSoC4/cyPm.c ****     #if (CY_IP_IMO_TRIMMABLE_BY_WCO)
 101:Generated_Source\PSoC4/cyPm.c ****         if (0u != (CY_SYS_CLK_WCO_CONFIG_REG & CY_SYS_CLK_WCO_CONFIG_DPLL_ENABLE))
 102:Generated_Source\PSoC4/cyPm.c ****         {
 103:Generated_Source\PSoC4/cyPm.c ****             regTmp  = CY_SYS_CLK_WCO_DPLL_REG & ~(CY_SYS_CLK_WCO_CONFIG_DPLL_LF_LIMIT_MASK);
 104:Generated_Source\PSoC4/cyPm.c ****             CY_SYS_CLK_WCO_DPLL_REG = (regTmp | (((CY_SYS_CLK_IMO_TRIM1_REG + CY_PM_WCO_DPLL_LF_LIM
 105:Generated_Source\PSoC4/cyPm.c ****                                                   CY_SYS_CLK_WCO_CONFIG_DPLL_LF_LIMIT_MAX) << 
 106:Generated_Source\PSoC4/cyPm.c ****                                                  CY_SYS_CLK_WCO_CONFIG_DPLL_LF_LIMIT_SHIFT));
 107:Generated_Source\PSoC4/cyPm.c ****         }
 108:Generated_Source\PSoC4/cyPm.c ****     #endif /* (CY_IP_IMO_TRIMMABLE_BY_WCO) */
 109:Generated_Source\PSoC4/cyPm.c **** 
 110:Generated_Source\PSoC4/cyPm.c ****     /* Adjust delay to wait for references to settle on wakeup from Deep Sleep */
 111:Generated_Source\PSoC4/cyPm.c ****     CY_PM_PWR_KEY_DELAY_REG = CY_SFLASH_DPSLP_KEY_DELAY_REG;
 112:Generated_Source\PSoC4/cyPm.c **** 
 113:Generated_Source\PSoC4/cyPm.c ****     /* CPU enters DeepSleep/Hibernate mode upon execution of WFI */
 114:Generated_Source\PSoC4/cyPm.c ****     CY_PM_CPU_SCR_REG |= CY_PM_CPU_SCR_SLEEPDEEP;
 115:Generated_Source\PSoC4/cyPm.c **** 
 116:Generated_Source\PSoC4/cyPm.c ****     #if(CY_IP_SRSSV2)
 117:Generated_Source\PSoC4/cyPm.c ****         /* Preserve system clock configuration and
ARM GAS  C:\Users\unyacat\AppData\Local\Temp\ccVMOIUr.s 			page 44


 118:Generated_Source\PSoC4/cyPm.c ****         * reduce sysclk to <=12 MHz (Cypress ID #158710, #179888).
 119:Generated_Source\PSoC4/cyPm.c ****         */
 120:Generated_Source\PSoC4/cyPm.c ****         clkSelectReg = CY_SYS_CLK_SELECT_REG;
 640              		.loc 1 120 0
 641 000a 0F4D     		ldr	r5, .L5+4
  93:Generated_Source\PSoC4/cyPm.c ****     #endif /* (CY_IP_SRSSV2) */
 642              		.loc 1 93 0
 643 000c 1368     		ldr	r3, [r2]
  79:Generated_Source\PSoC4/cyPm.c **** 
 644              		.loc 1 79 0
 645 000e 0400     		movs	r4, r0
 646              	.LVL3:
  93:Generated_Source\PSoC4/cyPm.c ****     #endif /* (CY_IP_SRSSV2) */
 647              		.loc 1 93 0
 648 0010 5B00     		lsls	r3, r3, #1
 649 0012 5B08     		lsrs	r3, r3, #1
 650 0014 1360     		str	r3, [r2]
 111:Generated_Source\PSoC4/cyPm.c **** 
 651              		.loc 1 111 0
 652 0016 0D4B     		ldr	r3, .L5+8
 653 0018 0D4A     		ldr	r2, .L5+12
 654 001a 1B88     		ldrh	r3, [r3]
 121:Generated_Source\PSoC4/cyPm.c ****         CySysClkWriteSysclkDiv(CY_SYS_CLK_SYSCLK_DIV4);
 655              		.loc 1 121 0
 656 001c 0220     		movs	r0, #2
 111:Generated_Source\PSoC4/cyPm.c **** 
 657              		.loc 1 111 0
 658 001e 9BB2     		uxth	r3, r3
 659 0020 1360     		str	r3, [r2]
 114:Generated_Source\PSoC4/cyPm.c **** 
 660              		.loc 1 114 0
 661 0022 0423     		movs	r3, #4
 662 0024 0B4A     		ldr	r2, .L5+16
 663 0026 1168     		ldr	r1, [r2]
 664 0028 0B43     		orrs	r3, r1
 665 002a 1360     		str	r3, [r2]
 120:Generated_Source\PSoC4/cyPm.c ****         CySysClkWriteSysclkDiv(CY_SYS_CLK_SYSCLK_DIV4);
 666              		.loc 1 120 0
 667 002c 2B68     		ldr	r3, [r5]
 668 002e 0193     		str	r3, [sp, #4]
 669              		.loc 1 121 0
 670 0030 FFF7FEFF 		bl	CySysClkWriteSysclkDiv
 671              	.LVL4:
 122:Generated_Source\PSoC4/cyPm.c ****     #endif /* (CY_IP_SRSSV2) */
 123:Generated_Source\PSoC4/cyPm.c ****     
 124:Generated_Source\PSoC4/cyPm.c ****     /* Sleep and wait for interrupt */
 125:Generated_Source\PSoC4/cyPm.c ****     CY_PM_WFI;
 672              		.loc 1 125 0
 673              		.syntax divided
 674              	@ 125 "Generated_Source\PSoC4\cyPm.c" 1
 675 0034 30BF     		WFI 
 676              	
 677              	@ 0 "" 2
 126:Generated_Source\PSoC4/cyPm.c **** 
 127:Generated_Source\PSoC4/cyPm.c ****     #if(CY_IP_SRSSV2)
 128:Generated_Source\PSoC4/cyPm.c ****         /* Restore system clock configuration */
 129:Generated_Source\PSoC4/cyPm.c ****         CY_SYS_CLK_SELECT_REG = clkSelectReg;
ARM GAS  C:\Users\unyacat\AppData\Local\Temp\ccVMOIUr.s 			page 45


 678              		.loc 1 129 0
 679              		.thumb
 680              		.syntax unified
 681 0036 019B     		ldr	r3, [sp, #4]
 130:Generated_Source\PSoC4/cyPm.c ****     #endif /* (CY_IP_SRSSV2) */
 131:Generated_Source\PSoC4/cyPm.c **** 
 132:Generated_Source\PSoC4/cyPm.c ****     #if (CY_IP_IMO_TRIMMABLE_BY_WCO)
 133:Generated_Source\PSoC4/cyPm.c ****         if (0u != (CY_SYS_CLK_WCO_CONFIG_REG & CY_SYS_CLK_WCO_CONFIG_DPLL_ENABLE))
 134:Generated_Source\PSoC4/cyPm.c ****         {
 135:Generated_Source\PSoC4/cyPm.c ****             CyDelayUs(CY_PM_WCO_DPLL_WAKEUP_DELAY);
 136:Generated_Source\PSoC4/cyPm.c ****             regTmp  = CY_SYS_CLK_WCO_DPLL_REG & ~(CY_SYS_CLK_WCO_CONFIG_DPLL_LF_LIMIT_MASK);
 137:Generated_Source\PSoC4/cyPm.c ****             CY_SYS_CLK_WCO_DPLL_REG = (regTmp | (CY_SYS_CLK_WCO_CONFIG_DPLL_LF_LIMIT_MAX << 
 138:Generated_Source\PSoC4/cyPm.c ****                                                  CY_SYS_CLK_WCO_CONFIG_DPLL_LF_LIMIT_SHIFT));
 139:Generated_Source\PSoC4/cyPm.c ****         }
 140:Generated_Source\PSoC4/cyPm.c ****     #endif /* (CY_IP_IMO_TRIMMABLE_BY_WCO) */    
 141:Generated_Source\PSoC4/cyPm.c ****     
 142:Generated_Source\PSoC4/cyPm.c ****     #if (CY_IP_CPUSS && CY_IP_SRSSV2)
 143:Generated_Source\PSoC4/cyPm.c ****         CY_PM_CPUSS_CONFIG_REG &= (uint32) (~CY_PM_CPUSS_CONFIG_FLSH_ACC_BYPASS);
 144:Generated_Source\PSoC4/cyPm.c ****     #endif /* (CY_IP_CPUSS && CY_IP_SRSSV2) */
 145:Generated_Source\PSoC4/cyPm.c **** 
 146:Generated_Source\PSoC4/cyPm.c ****     #if(CY_IP_ECO_SRSSLT)
 147:Generated_Source\PSoC4/cyPm.c ****         if(0u != pllResoreFlag)
 148:Generated_Source\PSoC4/cyPm.c ****         {
 149:Generated_Source\PSoC4/cyPm.c ****             CySysClkWriteHfclkDirect(CY_SYS_CLK_HFCLK_PLL0);
 150:Generated_Source\PSoC4/cyPm.c ****         }
 151:Generated_Source\PSoC4/cyPm.c ****     #endif /* (CY_IP_ECO_SRSSLT) */    
 152:Generated_Source\PSoC4/cyPm.c **** 
 153:Generated_Source\PSoC4/cyPm.c ****     CyExitCriticalSection(interruptState);
 682              		.loc 1 153 0
 683 0038 2000     		movs	r0, r4
 129:Generated_Source\PSoC4/cyPm.c ****     #endif /* (CY_IP_SRSSV2) */
 684              		.loc 1 129 0
 685 003a 2B60     		str	r3, [r5]
 686              		.loc 1 153 0
 687 003c FFF7FEFF 		bl	CyExitCriticalSection
 688              	.LVL5:
 154:Generated_Source\PSoC4/cyPm.c **** }
 689              		.loc 1 154 0
 690 0040 03B0     		add	sp, sp, #12
 691              		@ sp needed
 692              	.LVL6:
 693 0042 30BD     		pop	{r4, r5, pc}
 694              	.L6:
 695              		.align	2
 696              	.L5:
 697 0044 00000B40 		.word	1074462720
 698 0048 00010B40 		.word	1074462976
 699 004c 52F1FF0F 		.word	268431698
 700 0050 0C000B40 		.word	1074462732
 701 0054 10ED00E0 		.word	-536810224
 702              		.cfi_endproc
 703              	.LFE4:
 704              		.size	CySysPmDeepSleep, .-CySysPmDeepSleep
 705              		.section	.text.CySysPmHibernate,"ax",%progbits
 706              		.align	2
 707              		.global	CySysPmHibernate
 708              		.code	16
ARM GAS  C:\Users\unyacat\AppData\Local\Temp\ccVMOIUr.s 			page 46


 709              		.thumb_func
 710              		.type	CySysPmHibernate, %function
 711              	CySysPmHibernate:
 712              	.LFB5:
 155:Generated_Source\PSoC4/cyPm.c **** 
 156:Generated_Source\PSoC4/cyPm.c **** 
 157:Generated_Source\PSoC4/cyPm.c **** #if(CY_IP_SRSSV2)
 158:Generated_Source\PSoC4/cyPm.c **** 
 159:Generated_Source\PSoC4/cyPm.c ****     /*******************************************************************************
 160:Generated_Source\PSoC4/cyPm.c ****     * Function Name: CySysPmHibernate
 161:Generated_Source\PSoC4/cyPm.c ****     ****************************************************************************//**
 162:Generated_Source\PSoC4/cyPm.c ****     *
 163:Generated_Source\PSoC4/cyPm.c ****     * Puts the part into the Hibernate state. Only SRAM and UDBs are retained;
 164:Generated_Source\PSoC4/cyPm.c ****     * most internal supplies are off. Wakeup is possible from a pin or a hibernate
 165:Generated_Source\PSoC4/cyPm.c ****     * comparator only.
 166:Generated_Source\PSoC4/cyPm.c ****     *
 167:Generated_Source\PSoC4/cyPm.c ****     * It is expected that the firmware has already frozen the IO-Cells using
 168:Generated_Source\PSoC4/cyPm.c ****     * CySysPmFreezeIo() function before the call to this function. If this is
 169:Generated_Source\PSoC4/cyPm.c ****     * omitted, the IO-cells will be frozen in the same way as they are
 170:Generated_Source\PSoC4/cyPm.c ****     * in the Active to Deep Sleep transition, but will lose their state on wake up
 171:Generated_Source\PSoC4/cyPm.c ****     * (because of the reset occurring at that time).
 172:Generated_Source\PSoC4/cyPm.c ****     *
 173:Generated_Source\PSoC4/cyPm.c ****     * Because all the CPU state is lost, the CPU will start up at the reset vector.
 174:Generated_Source\PSoC4/cyPm.c ****     * To save the firmware state through the Hibernate low power mode, a
 175:Generated_Source\PSoC4/cyPm.c ****     * corresponding variable should be defined with CY_NOINIT attribute. It
 176:Generated_Source\PSoC4/cyPm.c ****     * prevents data from being initialized to zero on startup. The interrupt
 177:Generated_Source\PSoC4/cyPm.c ****     * cause of the hibernate peripheral is retained, such that it can be either
 178:Generated_Source\PSoC4/cyPm.c ****     * read by the firmware or cause an interrupt after the firmware has booted and
 179:Generated_Source\PSoC4/cyPm.c ****     * enabled the corresponding interrupt. To distinguish the wakeup from
 180:Generated_Source\PSoC4/cyPm.c ****     * the Hibernate mode and the general Reset event, the
 181:Generated_Source\PSoC4/cyPm.c ****     * \ref CySysPmGetResetReason() function could be used.
 182:Generated_Source\PSoC4/cyPm.c ****     *
 183:Generated_Source\PSoC4/cyPm.c ****     *******************************************************************************/
 184:Generated_Source\PSoC4/cyPm.c ****     void CySysPmHibernate(void)
 185:Generated_Source\PSoC4/cyPm.c ****     {
 713              		.loc 1 185 0
 714              		.cfi_startproc
 715              		@ args = 0, pretend = 0, frame = 0
 716              		@ frame_needed = 0, uses_anonymous_args = 0
 717 0000 10B5     		push	{r4, lr}
 718              		.cfi_def_cfa_offset 8
 719              		.cfi_offset 4, -8
 720              		.cfi_offset 14, -4
 186:Generated_Source\PSoC4/cyPm.c ****         uint8 interruptState;
 187:Generated_Source\PSoC4/cyPm.c **** 
 188:Generated_Source\PSoC4/cyPm.c ****         interruptState = CyEnterCriticalSection();
 721              		.loc 1 188 0
 722 0002 FFF7FEFF 		bl	CyEnterCriticalSection
 723              	.LVL7:
 724              	.LBB4:
 725              	.LBB5:
 726              		.file 2 "Generated_Source\\PSoC4\\cyPm.h"
   1:Generated_Source\PSoC4/cyPm.h **** /***************************************************************************//**
   2:Generated_Source\PSoC4/cyPm.h **** * \file cyPm.h
   3:Generated_Source\PSoC4/cyPm.h **** * \version 6.0
   4:Generated_Source\PSoC4/cyPm.h **** *
   5:Generated_Source\PSoC4/cyPm.h **** * \brief Provides the function definitions for the power management API.
ARM GAS  C:\Users\unyacat\AppData\Local\Temp\ccVMOIUr.s 			page 47


   6:Generated_Source\PSoC4/cyPm.h **** *
   7:Generated_Source\PSoC4/cyPm.h **** * \note Documentation of the API's in this file is located in the System
   8:Generated_Source\PSoC4/cyPm.h **** * Reference Guide provided with PSoC Creator.
   9:Generated_Source\PSoC4/cyPm.h **** *
  10:Generated_Source\PSoC4/cyPm.h **** ********************************************************************************
  11:Generated_Source\PSoC4/cyPm.h **** * \copyright
  12:Generated_Source\PSoC4/cyPm.h **** * Copyright 2011-2018, Cypress Semiconductor Corporation.  All rights reserved.
  13:Generated_Source\PSoC4/cyPm.h **** * You may use this file only in accordance with the license, terms, conditions,
  14:Generated_Source\PSoC4/cyPm.h **** * disclaimers, and limitations in the end user license agreement accompanying
  15:Generated_Source\PSoC4/cyPm.h **** * the software package with which this file was provided.
  16:Generated_Source\PSoC4/cyPm.h **** *******************************************************************************/
  17:Generated_Source\PSoC4/cyPm.h **** 
  18:Generated_Source\PSoC4/cyPm.h **** #if !defined(CY_BOOT_CYPM_H)
  19:Generated_Source\PSoC4/cyPm.h **** #define CY_BOOT_CYPM_H
  20:Generated_Source\PSoC4/cyPm.h **** 
  21:Generated_Source\PSoC4/cyPm.h **** #include "cytypes.h"
  22:Generated_Source\PSoC4/cyPm.h **** #include "cypins.h"
  23:Generated_Source\PSoC4/cyPm.h **** 
  24:Generated_Source\PSoC4/cyPm.h **** 
  25:Generated_Source\PSoC4/cyPm.h **** /**
  26:Generated_Source\PSoC4/cyPm.h **** * \addtogroup group_power_management Power Management API
  27:Generated_Source\PSoC4/cyPm.h **** * @{
  28:Generated_Source\PSoC4/cyPm.h **** 
  29:Generated_Source\PSoC4/cyPm.h **** \brief PSoC 4 devices support the following power modes (in order of high to low power consumption)
  30:Generated_Source\PSoC4/cyPm.h **** Deep Sleep, Hibernate, and Stop. Active, Sleep and Deep-Sleep are standard ARM defined power modes,
  31:Generated_Source\PSoC4/cyPm.h **** ARM CPUs. Hibernate/Stop are even lower power modes that are entered from firmware just like Deep-S
  32:Generated_Source\PSoC4/cyPm.h **** the CPU (and all peripherals) goes through a full reset.
  33:Generated_Source\PSoC4/cyPm.h **** 
  34:Generated_Source\PSoC4/cyPm.h **** There is a full range of power modes supported by PSoC devices to control power consumption and the
  35:Generated_Source\PSoC4/cyPm.h **** resources. See the following table for the supported power modes.
  36:Generated_Source\PSoC4/cyPm.h **** 
  37:Generated_Source\PSoC4/cyPm.h **** Mode        | PSoC 4000              | Rest Devices           |
  38:Generated_Source\PSoC4/cyPm.h **** ----------- | ---------------------- | ---------------------- |
  39:Generated_Source\PSoC4/cyPm.h **** Active      |          Y             |       Y                |
  40:Generated_Source\PSoC4/cyPm.h **** Sleep       |          Y             |       Y                |
  41:Generated_Source\PSoC4/cyPm.h **** Deep Sleep  |          Y             |       Y                |
  42:Generated_Source\PSoC4/cyPm.h **** Hibernate   |          Y             |       Y                |
  43:Generated_Source\PSoC4/cyPm.h **** Stop        |                        |       Y                |
  44:Generated_Source\PSoC4/cyPm.h **** 
  45:Generated_Source\PSoC4/cyPm.h **** For the ARM-based devices (PSoC 4), an interrupt is required for the CPU to wake up. The Power Mana
  46:Generated_Source\PSoC4/cyPm.h **** assumes that wakeup time is configured with a separate component (component-based wakeup time confi
  47:Generated_Source\PSoC4/cyPm.h **** interrupt to be issued on terminal count.
  48:Generated_Source\PSoC4/cyPm.h **** 
  49:Generated_Source\PSoC4/cyPm.h **** All pending interrupts should be cleared before the device is put into low power mode, even if they
  50:Generated_Source\PSoC4/cyPm.h **** 
  51:Generated_Source\PSoC4/cyPm.h **** The Power Management API is provided in the CyPm.c and CyPm.h files.
  52:Generated_Source\PSoC4/cyPm.h **** 
  53:Generated_Source\PSoC4/cyPm.h **** 
  54:Generated_Source\PSoC4/cyPm.h **** \section group_power_management_implementation Implementation
  55:Generated_Source\PSoC4/cyPm.h **** For PSoC 4100, PSoC 4000U and PSoC 4200 devices, the software should set EXT_VCCD bit in the PWR_CO
  56:Generated_Source\PSoC4/cyPm.h **** Vccd is shorted to Vddd on the board. This impacts the chip internal state transitions where it is 
  57:Generated_Source\PSoC4/cyPm.h **** whether Vccd is connected or floating to achieve minimum current in low power modes. Note Setting t
  58:Generated_Source\PSoC4/cyPm.h **** the active regulator and will lead to a system reset unless both Vddd and Vccd pins are supplied ex
  59:Generated_Source\PSoC4/cyPm.h **** the device TRM for more information.
  60:Generated_Source\PSoC4/cyPm.h **** 
  61:Generated_Source\PSoC4/cyPm.h **** It is safe to call PM APIs from the ISR. The wakeup conditions for Sleep and DeepSleep low power mo
  62:Generated_Source\PSoC4/cyPm.h **** in the following table.
ARM GAS  C:\Users\unyacat\AppData\Local\Temp\ccVMOIUr.s 			page 48


  63:Generated_Source\PSoC4/cyPm.h **** 
  64:Generated_Source\PSoC4/cyPm.h **** Interrupts State  |  Condition                      | Wakeup    |   ISR Execution   |
  65:Generated_Source\PSoC4/cyPm.h **** ------------------|---------------------------------|-----------|------------------ |
  66:Generated_Source\PSoC4/cyPm.h **** Unmasked          | IRQ priority > current level    | Yes       |   Yes             |
  67:Generated_Source\PSoC4/cyPm.h **** Unmasked          | IRQ priority  current level    | No        |   No              |
  68:Generated_Source\PSoC4/cyPm.h **** Masked            | IRQ priority > current level    | Yes       |   No              |
  69:Generated_Source\PSoC4/cyPm.h **** Masked            | IRQ priority  current level    | No        |   No              |
  70:Generated_Source\PSoC4/cyPm.h **** 
  71:Generated_Source\PSoC4/cyPm.h **** 
  72:Generated_Source\PSoC4/cyPm.h **** \section group_power_management_clocks Clock Configuration
  73:Generated_Source\PSoC4/cyPm.h **** For PSoC 4100 BLE and PSoC 4200 BLE devices, the HFCLK source should be set to IMO before switching
  74:Generated_Source\PSoC4/cyPm.h **** power mode. The IMO should be enabled (by calling CySysClkImoStart(), if it is not) and HFCLK sourc
  75:Generated_Source\PSoC4/cyPm.h **** to IMO by calling CySysClkWriteHfclkDirect(CY_SYS_CLK_HFCLK_IMO).
  76:Generated_Source\PSoC4/cyPm.h **** 
  77:Generated_Source\PSoC4/cyPm.h **** If the System clock frequency is increased by switching to the IMO, the CySysFlashSetWaitCycles() f
  78:Generated_Source\PSoC4/cyPm.h **** appropriate parameter should be called beforehand. Also, it can optionally be called after lowering
  79:Generated_Source\PSoC4/cyPm.h **** frequency in order to improve CPU performance. See CySysFlashSetWaitCycles() description for the de
  80:Generated_Source\PSoC4/cyPm.h **** 
  81:Generated_Source\PSoC4/cyPm.h **** 
  82:Generated_Source\PSoC4/cyPm.h **** 
  83:Generated_Source\PSoC4/cyPm.h **** 
  84:Generated_Source\PSoC4/cyPm.h **** 
  85:Generated_Source\PSoC4/cyPm.h **** */
  86:Generated_Source\PSoC4/cyPm.h **** void CySysPmSleep(void);
  87:Generated_Source\PSoC4/cyPm.h **** void CySysPmDeepSleep(void);
  88:Generated_Source\PSoC4/cyPm.h **** 
  89:Generated_Source\PSoC4/cyPm.h **** #if(CY_IP_SRSSV2)
  90:Generated_Source\PSoC4/cyPm.h ****     void CySysPmHibernate(void);
  91:Generated_Source\PSoC4/cyPm.h ****     void CySysPmFreezeIo(void);
  92:Generated_Source\PSoC4/cyPm.h ****     void CySysPmUnfreezeIo(void);
  93:Generated_Source\PSoC4/cyPm.h ****     uint32 CySysPmGetResetReason(void);
  94:Generated_Source\PSoC4/cyPm.h ****     void CySysPmStop(void);
  95:Generated_Source\PSoC4/cyPm.h ****     void CySysPmSetWakeupPolarity(uint32 polarity);
  96:Generated_Source\PSoC4/cyPm.h **** #else
  97:Generated_Source\PSoC4/cyPm.h ****     void CySysPmSetWakeupHoldoff(uint32 hfclkFrequencyMhz);
  98:Generated_Source\PSoC4/cyPm.h **** #endif /* (CY_IP_SRSSV2) */
  99:Generated_Source\PSoC4/cyPm.h **** 
 100:Generated_Source\PSoC4/cyPm.h **** /** @} group_power_management */
 101:Generated_Source\PSoC4/cyPm.h **** 
 102:Generated_Source\PSoC4/cyPm.h **** 
 103:Generated_Source\PSoC4/cyPm.h **** /*******************************************************************************
 104:Generated_Source\PSoC4/cyPm.h **** * The ARM compilers have the __wfi() intrinsic that inserts a WFI instruction
 105:Generated_Source\PSoC4/cyPm.h **** * into the instruction stream generated by the compiler. The GCC compiler has to
 106:Generated_Source\PSoC4/cyPm.h **** * execute assembly language instruction.
 107:Generated_Source\PSoC4/cyPm.h **** *******************************************************************************/
 108:Generated_Source\PSoC4/cyPm.h **** #if defined(__ARMCC_VERSION)    /* Instristic for Keil compilers */
 109:Generated_Source\PSoC4/cyPm.h ****     #define CY_PM_WFI       __wfi()
 110:Generated_Source\PSoC4/cyPm.h **** #else   /* ASM for GCC & IAR */
 111:Generated_Source\PSoC4/cyPm.h ****     #define CY_PM_WFI       __asm volatile ("WFI \n")
 112:Generated_Source\PSoC4/cyPm.h **** #endif /* __ARMCC_VERSION */
 113:Generated_Source\PSoC4/cyPm.h **** 
 114:Generated_Source\PSoC4/cyPm.h **** #if(CY_IP_SRSSV2)
 115:Generated_Source\PSoC4/cyPm.h **** 
 116:Generated_Source\PSoC4/cyPm.h ****     /* CySysPmSetWakeupPolarity() */
 117:Generated_Source\PSoC4/cyPm.h ****     #define CY_PM_STOP_WAKEUP_ACTIVE_LOW        ((uint32)(0x0u))    /**< Logical zero will wakeup t
 118:Generated_Source\PSoC4/cyPm.h ****     #define CY_PM_STOP_WAKEUP_ACTIVE_HIGH       ((uint32)(0x1u))    /**< Logical one will wakeup th
 119:Generated_Source\PSoC4/cyPm.h ****     #define CY_PM_STOP_WAKEUP_POLARITY          (CY_PM_STOP_WAKEUP_ACTIVE_LOW)
ARM GAS  C:\Users\unyacat\AppData\Local\Temp\ccVMOIUr.s 			page 49


 120:Generated_Source\PSoC4/cyPm.h **** 
 121:Generated_Source\PSoC4/cyPm.h ****     /* CySysPmGetResetReason() */
 122:Generated_Source\PSoC4/cyPm.h ****     #define CY_PM_RESET_REASON_UNKN             (0u)    /**< Unknown reset reason. */
 123:Generated_Source\PSoC4/cyPm.h ****     #define CY_PM_RESET_REASON_XRES             (1u)    /**< Transition from OFF/XRES to RESET */
 124:Generated_Source\PSoC4/cyPm.h ****     #define CY_PM_RESET_REASON_WAKEUP_HIB       (2u)    /**< Transition/wakeup from HIBERNATE to RE
 125:Generated_Source\PSoC4/cyPm.h ****     #define CY_PM_RESET_REASON_WAKEUP_STOP      (3u)    /**< Transition/wakeup from STOP to RESET *
 126:Generated_Source\PSoC4/cyPm.h **** 
 127:Generated_Source\PSoC4/cyPm.h **** #endif /* (CY_IP_SRSSV2) */
 128:Generated_Source\PSoC4/cyPm.h **** 
 129:Generated_Source\PSoC4/cyPm.h **** 
 130:Generated_Source\PSoC4/cyPm.h **** /***************************************
 131:Generated_Source\PSoC4/cyPm.h **** *              Registers
 132:Generated_Source\PSoC4/cyPm.h **** ***************************************/
 133:Generated_Source\PSoC4/cyPm.h **** 
 134:Generated_Source\PSoC4/cyPm.h **** /* Power Mode Control */
 135:Generated_Source\PSoC4/cyPm.h **** #define CY_PM_PWR_CONTROL_REG               (*(reg32 *) CYREG_PWR_CONTROL)
 136:Generated_Source\PSoC4/cyPm.h **** #define CY_PM_PWR_CONTROL_PTR               ( (reg32 *) CYREG_PWR_CONTROL)
 137:Generated_Source\PSoC4/cyPm.h **** 
 138:Generated_Source\PSoC4/cyPm.h **** /* CPU System Control Register */
 139:Generated_Source\PSoC4/cyPm.h **** #if (CY_IP_CPUSS_CM0)
 140:Generated_Source\PSoC4/cyPm.h ****     #define CY_PM_CPU_SCR_REG                   (*(reg32 *) CYREG_CM0_SCR)
 141:Generated_Source\PSoC4/cyPm.h ****     #define CY_PM_CPU_SCR_PTR                   ( (reg32 *) CYREG_CM0_SCR)
 142:Generated_Source\PSoC4/cyPm.h **** #else /* CY_IP_CPUSS_CM0PLUS */
 143:Generated_Source\PSoC4/cyPm.h ****     #define CY_PM_CPU_SCR_REG                   (*(reg32 *) CYREG_CM0P_SCR)
 144:Generated_Source\PSoC4/cyPm.h ****     #define CY_PM_CPU_SCR_PTR                   ( (reg32 *) CYREG_CM0P_SCR)
 145:Generated_Source\PSoC4/cyPm.h **** #endif /* (CY_IP_CPUSS_CM0) */
 146:Generated_Source\PSoC4/cyPm.h **** 
 147:Generated_Source\PSoC4/cyPm.h **** /* Power System Key & Delay Register */
 148:Generated_Source\PSoC4/cyPm.h **** #define CY_PM_PWR_KEY_DELAY_REG             (*(reg32 *) CYREG_PWR_KEY_DELAY)
 149:Generated_Source\PSoC4/cyPm.h **** #define CY_PM_PWR_KEY_DELAY_PTR             ( (reg32 *) CYREG_PWR_KEY_DELAY)
 150:Generated_Source\PSoC4/cyPm.h **** 
 151:Generated_Source\PSoC4/cyPm.h **** 
 152:Generated_Source\PSoC4/cyPm.h **** #if(CY_IP_SRSSV2)
 153:Generated_Source\PSoC4/cyPm.h ****     /* Hibernate wakeup value for PWR_KEY_DELAY */
 154:Generated_Source\PSoC4/cyPm.h ****     #define CY_SFLASH_HIB_KEY_DELAY_REG     (*(reg16 *) CYREG_SFLASH_HIB_KEY_DELAY)
 155:Generated_Source\PSoC4/cyPm.h ****     #define CY_SFLASH_HIB_KEY_DELAY_PTR     ( (reg16 *) CYREG_SFLASH_HIB_KEY_DELAY)
 156:Generated_Source\PSoC4/cyPm.h **** #endif  /* (CY_IP_SRSSV2) */
 157:Generated_Source\PSoC4/cyPm.h **** 
 158:Generated_Source\PSoC4/cyPm.h **** /* Deep Sleep wakeup value for PWR_KEY_DELAY */
 159:Generated_Source\PSoC4/cyPm.h **** #define CY_SFLASH_DPSLP_KEY_DELAY_REG       (*(reg16 *) CYREG_SFLASH_DPSLP_KEY_DELAY)
 160:Generated_Source\PSoC4/cyPm.h **** #define CY_SFLASH_DPSLP_KEY_DELAY_PTR       ( (reg16 *) CYREG_SFLASH_DPSLP_KEY_DELAY)
 161:Generated_Source\PSoC4/cyPm.h **** 
 162:Generated_Source\PSoC4/cyPm.h **** /* Power Stop Mode Register */
 163:Generated_Source\PSoC4/cyPm.h **** #if(CY_IP_SRSSV2)
 164:Generated_Source\PSoC4/cyPm.h ****     #define CY_PM_PWR_STOP_REG              (*(reg32 *) CYREG_PWR_STOP)
 165:Generated_Source\PSoC4/cyPm.h ****     #define CY_PM_PWR_STOP_PTR              ( (reg32 *) CYREG_PWR_STOP)
 166:Generated_Source\PSoC4/cyPm.h **** #endif /* (CY_IP_SRSSV2) */
 167:Generated_Source\PSoC4/cyPm.h **** 
 168:Generated_Source\PSoC4/cyPm.h **** #if (CY_PSOC4_4100 || CY_PSOC4_4200 || CY_PSOC4_4000U)
 169:Generated_Source\PSoC4/cyPm.h ****     /* CPU Subsystem Configuration */
 170:Generated_Source\PSoC4/cyPm.h ****     #define CY_PM_CPUSS_CONFIG_REG             (*(reg32 *) CYREG_CPUSS_CONFIG)
 171:Generated_Source\PSoC4/cyPm.h ****     #define CY_PM_CPUSS_CONFIG_PTR             ( (reg32 *) CYREG_CPUSS_CONFIG)
 172:Generated_Source\PSoC4/cyPm.h **** #endif /* (CY_PSOC4_4100 || CY_PSOC4_4200 || CY_PSOC4_4000U) */
 173:Generated_Source\PSoC4/cyPm.h **** 
 174:Generated_Source\PSoC4/cyPm.h **** 
 175:Generated_Source\PSoC4/cyPm.h **** /***************************************
 176:Generated_Source\PSoC4/cyPm.h **** *       Register Constants
ARM GAS  C:\Users\unyacat\AppData\Local\Temp\ccVMOIUr.s 			page 50


 177:Generated_Source\PSoC4/cyPm.h **** ***************************************/
 178:Generated_Source\PSoC4/cyPm.h **** 
 179:Generated_Source\PSoC4/cyPm.h **** /* CM0 System Control Register Constants */
 180:Generated_Source\PSoC4/cyPm.h **** #define CY_PM_CPU_SCR_SLEEPDEEP             ((uint32)(0x04u))
 181:Generated_Source\PSoC4/cyPm.h **** 
 182:Generated_Source\PSoC4/cyPm.h **** #if(CY_IP_SRSSV2)
 183:Generated_Source\PSoC4/cyPm.h ****     /* Power Mode Control Constants */
 184:Generated_Source\PSoC4/cyPm.h ****     #define CY_PM_PWR_CONTROL_HIBERNATE         (0x80000000u)
 185:Generated_Source\PSoC4/cyPm.h **** 
 186:Generated_Source\PSoC4/cyPm.h ****     /* Power Mode Stop Constants */
 187:Generated_Source\PSoC4/cyPm.h ****     #define CY_PM_PWR_STOP_POLARITY_SHIFT       (16u)
 188:Generated_Source\PSoC4/cyPm.h ****     #define CY_PM_PWR_STOP_POLARITY             ((uint32)((uint32)1u << CY_PM_PWR_STOP_POLARITY_SHI
 189:Generated_Source\PSoC4/cyPm.h ****     #define CY_PM_PWR_STOP_FREEZE_SHIFT         (17u)
 190:Generated_Source\PSoC4/cyPm.h ****     #define CY_PM_PWR_STOP_FREEZE               ((uint32)((uint32)1u << CY_PM_PWR_STOP_FREEZE_SHIFT
 191:Generated_Source\PSoC4/cyPm.h ****     #define CY_PM_PWR_STOP_UNLOCK_SHIFT         (8u)
 192:Generated_Source\PSoC4/cyPm.h ****     #define CY_PM_PWR_STOP_UNLOCK_MASK          ((uint32)((uint32)0xFFu << CY_PM_PWR_STOP_UNLOCK_SH
 193:Generated_Source\PSoC4/cyPm.h ****     #define CY_PM_PWR_STOP_UNLOCK               ((uint32)((uint32)0x3Au << CY_PM_PWR_STOP_UNLOCK_SH
 194:Generated_Source\PSoC4/cyPm.h ****     #define CY_PM_PWR_STOP_STOP_SHIFT           (31u)
 195:Generated_Source\PSoC4/cyPm.h ****     #define CY_PM_PWR_STOP_STOP                 ((uint32)((uint32)1u << CY_PM_PWR_STOP_STOP_SHIFT))
 196:Generated_Source\PSoC4/cyPm.h ****     #define CY_PM_PWR_STOP_TOKEN_MASK           ((uint32)(0xFFu))
 197:Generated_Source\PSoC4/cyPm.h ****     #define CY_PM_PWR_STOP_TOKEN_XRES           ((uint32)(0x00u))
 198:Generated_Source\PSoC4/cyPm.h ****     #define CY_PM_PWR_STOP_TOKEN_HIB            ((uint32)(0xF1u))
 199:Generated_Source\PSoC4/cyPm.h ****     #define CY_PM_PWR_STOP_TOKEN_STOP           ((uint32)(0xF2u))
 200:Generated_Source\PSoC4/cyPm.h **** #else
 201:Generated_Source\PSoC4/cyPm.h ****     #define CY_PM_PWR_KEY_DELAY_REG_DEFAULT     ((uint32) 248u)
 202:Generated_Source\PSoC4/cyPm.h ****     #define CY_PM_PWR_KEY_DELAY_FREQ_DEFAULT    (48u)
 203:Generated_Source\PSoC4/cyPm.h **** #endif /* (CY_IP_SRSSV2) */
 204:Generated_Source\PSoC4/cyPm.h **** 
 205:Generated_Source\PSoC4/cyPm.h **** #if (CY_IP_IMO_TRIMMABLE_BY_WCO)
 206:Generated_Source\PSoC4/cyPm.h ****     #define CY_PM_WCO_DPLL_WAKEUP_DELAY         (35u)
 207:Generated_Source\PSoC4/cyPm.h ****     #define CY_PM_WCO_DPLL_LF_LIMIT_TEMP_DRIFT  (4u)
 208:Generated_Source\PSoC4/cyPm.h **** #endif /* (CY_IP_IMO_TRIMMABLE_BY_WCO) */
 209:Generated_Source\PSoC4/cyPm.h **** 
 210:Generated_Source\PSoC4/cyPm.h **** #if (CY_PSOC4_4100 || CY_PSOC4_4200 || CY_PSOC4_4000U)
 211:Generated_Source\PSoC4/cyPm.h ****     /* 0 - normal operation, 1 - Flash Accelerator in bypass mode */
 212:Generated_Source\PSoC4/cyPm.h ****     #define CY_PM_CPUSS_CONFIG_FLSH_ACC_BYPASS      ((uint32) 0x02u)
 213:Generated_Source\PSoC4/cyPm.h **** #endif /* (CY_PSOC4_4100 || CY_PSOC4_4200 || CY_PSOC4_4000U) */
 214:Generated_Source\PSoC4/cyPm.h **** 
 215:Generated_Source\PSoC4/cyPm.h **** 
 216:Generated_Source\PSoC4/cyPm.h **** #if (CY_IP_SRSSV2)
 217:Generated_Source\PSoC4/cyPm.h ****     #if (CY_IP_HOBTO_DEVICE)
 218:Generated_Source\PSoC4/cyPm.h ****         /*******************************************************************************
 219:Generated_Source\PSoC4/cyPm.h ****         * Function Name: CySysPmHibPinsDisableInputBuf
 220:Generated_Source\PSoC4/cyPm.h ****         ****************************************************************************//**
 221:Generated_Source\PSoC4/cyPm.h ****         *
 222:Generated_Source\PSoC4/cyPm.h ****         *  Disable the input buffer for all the port. This is required before Hibernate
 223:Generated_Source\PSoC4/cyPm.h ****         *  mode entry as the operation of the input buffer is not guaranteed if VCCD
 224:Generated_Source\PSoC4/cyPm.h ****         *  drops down to 1.0 V.
 225:Generated_Source\PSoC4/cyPm.h ****         *
 226:Generated_Source\PSoC4/cyPm.h ****         *******************************************************************************/
 227:Generated_Source\PSoC4/cyPm.h ****         static CY_INLINE void CySysPmHibPinsDisableInputBuf(void)
 228:Generated_Source\PSoC4/cyPm.h ****         {
 229:Generated_Source\PSoC4/cyPm.h ****             #ifdef CYREG_GPIO_PRT0_PC
 230:Generated_Source\PSoC4/cyPm.h ****                 CY_CLEAR_REG32_FIELD(CYREG_GPIO_PRT0_PC, CYFLD_GPIO_PRT_PORT_IB_MODE_SEL);
 727              		.loc 2 230 0
 728 0006 1F4A     		ldr	r2, .L8
 729              	.LBE5:
ARM GAS  C:\Users\unyacat\AppData\Local\Temp\ccVMOIUr.s 			page 51


 730              	.LBE4:
 189:Generated_Source\PSoC4/cyPm.c **** 
 190:Generated_Source\PSoC4/cyPm.c ****         #if (CY_IP_HOBTO_DEVICE)
 191:Generated_Source\PSoC4/cyPm.c ****             /* Disable input buffers for all ports */
 192:Generated_Source\PSoC4/cyPm.c ****             CySysPmHibPinsDisableInputBuf();
 193:Generated_Source\PSoC4/cyPm.c ****         #endif /* (CY_IP_HOBTO_DEVICE) */
 194:Generated_Source\PSoC4/cyPm.c **** 
 195:Generated_Source\PSoC4/cyPm.c ****         /* Device enters Hibernate mode when CPU asserts SLEEPDEEP signal */
 196:Generated_Source\PSoC4/cyPm.c ****         CY_PM_PWR_CONTROL_REG |= CY_PM_PWR_CONTROL_HIBERNATE;
 731              		.loc 1 196 0
 732 0008 8021     		movs	r1, #128
 733              	.LBB8:
 734              	.LBB6:
 735              		.loc 2 230 0
 736 000a 1368     		ldr	r3, [r2]
 737              	.LBE6:
 738              	.LBE8:
 739              		.loc 1 196 0
 740 000c 0906     		lsls	r1, r1, #24
 741              	.LBB9:
 742              	.LBB7:
 743              		.loc 2 230 0
 744 000e 9B00     		lsls	r3, r3, #2
 745 0010 9B08     		lsrs	r3, r3, #2
 746 0012 1360     		str	r3, [r2]
 231:Generated_Source\PSoC4/cyPm.h ****             #endif /* CYREG_GPIO_PRT0_PC */
 232:Generated_Source\PSoC4/cyPm.h **** 
 233:Generated_Source\PSoC4/cyPm.h ****             #ifdef CYREG_GPIO_PRT1_PC
 234:Generated_Source\PSoC4/cyPm.h ****                 CY_CLEAR_REG32_FIELD( CYREG_GPIO_PRT1_PC, CYFLD_GPIO_PRT_PORT_IB_MODE_SEL);
 747              		.loc 2 234 0
 748 0014 1C4A     		ldr	r2, .L8+4
 749 0016 1368     		ldr	r3, [r2]
 750 0018 9B00     		lsls	r3, r3, #2
 751 001a 9B08     		lsrs	r3, r3, #2
 752 001c 1360     		str	r3, [r2]
 235:Generated_Source\PSoC4/cyPm.h ****             #endif /* CYREG_GPIO_PRT1_PC */
 236:Generated_Source\PSoC4/cyPm.h **** 
 237:Generated_Source\PSoC4/cyPm.h ****             #ifdef CYREG_GPIO_PRT2_PC
 238:Generated_Source\PSoC4/cyPm.h ****                 CY_CLEAR_REG32_FIELD( CYREG_GPIO_PRT2_PC, CYFLD_GPIO_PRT_PORT_IB_MODE_SEL);
 753              		.loc 2 238 0
 754 001e 1B4A     		ldr	r2, .L8+8
 755 0020 1368     		ldr	r3, [r2]
 756 0022 9B00     		lsls	r3, r3, #2
 757 0024 9B08     		lsrs	r3, r3, #2
 758 0026 1360     		str	r3, [r2]
 239:Generated_Source\PSoC4/cyPm.h ****             #endif /* CYREG_GPIO_PRT2_PC */
 240:Generated_Source\PSoC4/cyPm.h **** 
 241:Generated_Source\PSoC4/cyPm.h ****             #ifdef CYREG_GPIO_PRT3_PC
 242:Generated_Source\PSoC4/cyPm.h ****                 CY_CLEAR_REG32_FIELD( CYREG_GPIO_PRT3_PC, CYFLD_GPIO_PRT_PORT_IB_MODE_SEL);
 759              		.loc 2 242 0
 760 0028 194A     		ldr	r2, .L8+12
 761 002a 1368     		ldr	r3, [r2]
 762 002c 9B00     		lsls	r3, r3, #2
 763 002e 9B08     		lsrs	r3, r3, #2
 764 0030 1360     		str	r3, [r2]
 243:Generated_Source\PSoC4/cyPm.h ****             #endif /* CYREG_GPIO_PRT3_PC */
 244:Generated_Source\PSoC4/cyPm.h **** 
ARM GAS  C:\Users\unyacat\AppData\Local\Temp\ccVMOIUr.s 			page 52


 245:Generated_Source\PSoC4/cyPm.h ****             #ifdef CYREG_GPIO_PRT4_PC
 246:Generated_Source\PSoC4/cyPm.h ****                 CY_CLEAR_REG32_FIELD( CYREG_GPIO_PRT4_PC, CYFLD_GPIO_PRT_PORT_IB_MODE_SEL);
 765              		.loc 2 246 0
 766 0032 184A     		ldr	r2, .L8+16
 767 0034 1368     		ldr	r3, [r2]
 768 0036 9B00     		lsls	r3, r3, #2
 769 0038 9B08     		lsrs	r3, r3, #2
 770 003a 1360     		str	r3, [r2]
 247:Generated_Source\PSoC4/cyPm.h ****             #endif /* CYREG_GPIO_PRT4_PC */
 248:Generated_Source\PSoC4/cyPm.h **** 
 249:Generated_Source\PSoC4/cyPm.h ****             #ifdef CYREG_GPIO_PRT5_PC
 250:Generated_Source\PSoC4/cyPm.h ****                 CY_CLEAR_REG32_FIELD( CYREG_GPIO_PRT5_PC, CYFLD_GPIO_PRT_PORT_IB_MODE_SEL);
 771              		.loc 2 250 0
 772 003c 164A     		ldr	r2, .L8+20
 773 003e 1368     		ldr	r3, [r2]
 774 0040 9B00     		lsls	r3, r3, #2
 775 0042 9B08     		lsrs	r3, r3, #2
 776 0044 1360     		str	r3, [r2]
 251:Generated_Source\PSoC4/cyPm.h ****             #endif /* CYREG_GPIO_PRT5_PC */
 252:Generated_Source\PSoC4/cyPm.h **** 
 253:Generated_Source\PSoC4/cyPm.h ****             #ifdef CYREG_GPIO_PRT6_PC
 254:Generated_Source\PSoC4/cyPm.h ****                 CY_CLEAR_REG32_FIELD( CYREG_GPIO_PRT6_PC, CYFLD_GPIO_PRT_PORT_IB_MODE_SEL);
 777              		.loc 2 254 0
 778 0046 154A     		ldr	r2, .L8+24
 779 0048 1368     		ldr	r3, [r2]
 780 004a 9B00     		lsls	r3, r3, #2
 781 004c 9B08     		lsrs	r3, r3, #2
 782 004e 1360     		str	r3, [r2]
 783              	.LBE7:
 784              	.LBE9:
 785              		.loc 1 196 0
 786 0050 134A     		ldr	r2, .L8+28
 787 0052 1368     		ldr	r3, [r2]
 788 0054 0B43     		orrs	r3, r1
 789 0056 1360     		str	r3, [r2]
 197:Generated_Source\PSoC4/cyPm.c **** 
 198:Generated_Source\PSoC4/cyPm.c ****         /* Adjust delay to wait for references to settle on wakeup from hibernate */
 199:Generated_Source\PSoC4/cyPm.c ****         CY_PM_PWR_KEY_DELAY_REG = CY_SFLASH_HIB_KEY_DELAY_REG;
 790              		.loc 1 199 0
 791 0058 124B     		ldr	r3, .L8+32
 792 005a 134A     		ldr	r2, .L8+36
 793 005c 1B88     		ldrh	r3, [r3]
 794 005e 9BB2     		uxth	r3, r3
 795 0060 1360     		str	r3, [r2]
 200:Generated_Source\PSoC4/cyPm.c **** 
 201:Generated_Source\PSoC4/cyPm.c ****         /* CPU enters DeepSleep/Hibernate mode upon execution of WFI */
 202:Generated_Source\PSoC4/cyPm.c ****         CY_PM_CPU_SCR_REG |= CY_PM_CPU_SCR_SLEEPDEEP;
 796              		.loc 1 202 0
 797 0062 0423     		movs	r3, #4
 798 0064 114A     		ldr	r2, .L8+40
 799 0066 1168     		ldr	r1, [r2]
 800 0068 0B43     		orrs	r3, r1
 801 006a 1360     		str	r3, [r2]
 203:Generated_Source\PSoC4/cyPm.c **** 
 204:Generated_Source\PSoC4/cyPm.c ****         /* Save token that will retain through a STOP/WAKEUP sequence
 205:Generated_Source\PSoC4/cyPm.c ****          * thus could be used by CySysPmGetResetReason() to differentiate
 206:Generated_Source\PSoC4/cyPm.c ****          * WAKEUP from a general RESET event.
ARM GAS  C:\Users\unyacat\AppData\Local\Temp\ccVMOIUr.s 			page 53


 207:Generated_Source\PSoC4/cyPm.c ****          */
 208:Generated_Source\PSoC4/cyPm.c ****         CY_PM_PWR_STOP_REG = (CY_PM_PWR_STOP_REG & (uint32)(~CY_PM_PWR_STOP_TOKEN_MASK)) | CY_PM_PW
 802              		.loc 1 208 0
 803 006c FF22     		movs	r2, #255
 804 006e 1049     		ldr	r1, .L8+44
 805 0070 0B68     		ldr	r3, [r1]
 806 0072 9343     		bics	r3, r2
 807 0074 0E3A     		subs	r2, r2, #14
 808 0076 1343     		orrs	r3, r2
 809 0078 0B60     		str	r3, [r1]
 209:Generated_Source\PSoC4/cyPm.c **** 
 210:Generated_Source\PSoC4/cyPm.c ****         /* Sleep and wait for interrupt. Wakeup from Hibernate is performed
 211:Generated_Source\PSoC4/cyPm.c ****          * through RESET state, causing a normal Boot procedure to occur.
 212:Generated_Source\PSoC4/cyPm.c ****          * The WFI instruction doesn't put the core to sleep if its wake condition
 213:Generated_Source\PSoC4/cyPm.c ****          * is true when the instruction is executed.
 214:Generated_Source\PSoC4/cyPm.c ****          */
 215:Generated_Source\PSoC4/cyPm.c ****         CY_PM_WFI;
 810              		.loc 1 215 0
 811              		.syntax divided
 812              	@ 215 "Generated_Source\PSoC4\cyPm.c" 1
 813 007a 30BF     		WFI 
 814              	
 815              	@ 0 "" 2
 216:Generated_Source\PSoC4/cyPm.c **** 
 217:Generated_Source\PSoC4/cyPm.c ****         CyExitCriticalSection(interruptState);
 816              		.loc 1 217 0
 817              		.thumb
 818              		.syntax unified
 819 007c FFF7FEFF 		bl	CyExitCriticalSection
 820              	.LVL8:
 218:Generated_Source\PSoC4/cyPm.c ****     }
 821              		.loc 1 218 0
 822              		@ sp needed
 823 0080 10BD     		pop	{r4, pc}
 824              	.L9:
 825 0082 C046     		.align	2
 826              	.L8:
 827 0084 08000440 		.word	1074003976
 828 0088 08010440 		.word	1074004232
 829 008c 08020440 		.word	1074004488
 830 0090 08030440 		.word	1074004744
 831 0094 08040440 		.word	1074005000
 832 0098 08050440 		.word	1074005256
 833 009c 08060440 		.word	1074005512
 834 00a0 00000B40 		.word	1074462720
 835 00a4 50F1FF0F 		.word	268431696
 836 00a8 0C000B40 		.word	1074462732
 837 00ac 10ED00E0 		.word	-536810224
 838 00b0 2C000B40 		.word	1074462764
 839              		.cfi_endproc
 840              	.LFE5:
 841              		.size	CySysPmHibernate, .-CySysPmHibernate
 842              		.section	.text.CySysPmStop,"ax",%progbits
 843              		.align	2
 844              		.global	CySysPmStop
 845              		.code	16
 846              		.thumb_func
ARM GAS  C:\Users\unyacat\AppData\Local\Temp\ccVMOIUr.s 			page 54


 847              		.type	CySysPmStop, %function
 848              	CySysPmStop:
 849              	.LFB6:
 219:Generated_Source\PSoC4/cyPm.c **** 
 220:Generated_Source\PSoC4/cyPm.c **** 
 221:Generated_Source\PSoC4/cyPm.c ****     /*******************************************************************************
 222:Generated_Source\PSoC4/cyPm.c ****     * Function Name: CySysPmStop
 223:Generated_Source\PSoC4/cyPm.c ****     ****************************************************************************//**
 224:Generated_Source\PSoC4/cyPm.c ****     *
 225:Generated_Source\PSoC4/cyPm.c ****     * Puts the part into the Stop state. All internal supplies are off;
 226:Generated_Source\PSoC4/cyPm.c ****     * no state is retained.
 227:Generated_Source\PSoC4/cyPm.c ****     *
 228:Generated_Source\PSoC4/cyPm.c ****     * Wakeup from Stop is performed by toggling the wakeup pin, causing
 229:Generated_Source\PSoC4/cyPm.c ****     * a normal boot procedure to occur. To configure the wakeup pin,
 230:Generated_Source\PSoC4/cyPm.c ****     * the Digital Input Pin component should be placed on the schematic,
 231:Generated_Source\PSoC4/cyPm.c ****     * assigned to the wakeup pin, and resistively pulled up or down to the inverse
 232:Generated_Source\PSoC4/cyPm.c ****     * state of the wakeup polarity. To distinguish the wakeup from the Stop mode
 233:Generated_Source\PSoC4/cyPm.c ****     * and the general Reset event, \ref CySysPmGetResetReason() function could be
 234:Generated_Source\PSoC4/cyPm.c ****     * used.  The wakeup pin is active low by default. The wakeup pin polarity
 235:Generated_Source\PSoC4/cyPm.c ****     * could be changed with the \ref CySysPmSetWakeupPolarity() function.
 236:Generated_Source\PSoC4/cyPm.c ****     *
 237:Generated_Source\PSoC4/cyPm.c ****     * This function freezes IO cells implicitly. It is not possible to enter
 238:Generated_Source\PSoC4/cyPm.c ****     * the STOP mode before freezing the IO cells. The IO cells remain frozen after
 239:Generated_Source\PSoC4/cyPm.c ****     * awake from the Stop mode until the firmware unfreezes them after booting
 240:Generated_Source\PSoC4/cyPm.c ****     * explicitly with \ref CySysPmUnfreezeIo() function call.
 241:Generated_Source\PSoC4/cyPm.c ****     *
 242:Generated_Source\PSoC4/cyPm.c ****     *******************************************************************************/
 243:Generated_Source\PSoC4/cyPm.c ****     void CySysPmStop(void)
 244:Generated_Source\PSoC4/cyPm.c ****     {
 850              		.loc 1 244 0
 851              		.cfi_startproc
 852              		@ args = 0, pretend = 0, frame = 0
 853              		@ frame_needed = 0, uses_anonymous_args = 0
 854 0000 10B5     		push	{r4, lr}
 855              		.cfi_def_cfa_offset 8
 856              		.cfi_offset 4, -8
 857              		.cfi_offset 14, -4
 245:Generated_Source\PSoC4/cyPm.c ****         (void) CyEnterCriticalSection();
 858              		.loc 1 245 0
 859 0002 FFF7FEFF 		bl	CyEnterCriticalSection
 860              	.LVL9:
 246:Generated_Source\PSoC4/cyPm.c **** 
 247:Generated_Source\PSoC4/cyPm.c ****         /* Update token to indicate Stop mode transition. Preserve only polarity. */
 248:Generated_Source\PSoC4/cyPm.c ****         CY_PM_PWR_STOP_REG = (CY_PM_PWR_STOP_REG & CY_PM_PWR_STOP_POLARITY) | CY_PM_PWR_STOP_TOKEN_
 861              		.loc 1 248 0
 862 0006 8023     		movs	r3, #128
 863 0008 104C     		ldr	r4, .L13
 864 000a 5B02     		lsls	r3, r3, #9
 865 000c 2268     		ldr	r2, [r4]
 866 000e 1340     		ands	r3, r2
 867 0010 F222     		movs	r2, #242
 868 0012 1343     		orrs	r3, r2
 869 0014 2360     		str	r3, [r4]
 870              	.LBB12:
 871              	.LBB13:
 249:Generated_Source\PSoC4/cyPm.c **** 
 250:Generated_Source\PSoC4/cyPm.c ****         /* Freeze IO-Cells to save IO-Cell state */
ARM GAS  C:\Users\unyacat\AppData\Local\Temp\ccVMOIUr.s 			page 55


 251:Generated_Source\PSoC4/cyPm.c ****         CySysPmFreezeIo();
 252:Generated_Source\PSoC4/cyPm.c **** 
 253:Generated_Source\PSoC4/cyPm.c ****         /* Initiates transition to Stop state */
 254:Generated_Source\PSoC4/cyPm.c ****         CY_PM_PWR_STOP_REG = CY_PM_PWR_STOP_REG | CY_PM_PWR_STOP_STOP;
 255:Generated_Source\PSoC4/cyPm.c **** 
 256:Generated_Source\PSoC4/cyPm.c ****         /* Depending on the clock frequency and internal timing delays,
 257:Generated_Source\PSoC4/cyPm.c ****          * the final AHB transaction may or may not complete. To guard against
 258:Generated_Source\PSoC4/cyPm.c ****          * accidentally executing an unintended instruction, it is recommended
 259:Generated_Source\PSoC4/cyPm.c ****          * to add 2 NOP cycles after the final write to the STOP register.
 260:Generated_Source\PSoC4/cyPm.c ****          */
 261:Generated_Source\PSoC4/cyPm.c ****         CY_NOP;
 262:Generated_Source\PSoC4/cyPm.c ****         CY_NOP;
 263:Generated_Source\PSoC4/cyPm.c **** 
 264:Generated_Source\PSoC4/cyPm.c ****         /* Should never get to this WFI instruction */
 265:Generated_Source\PSoC4/cyPm.c ****         CY_PM_WFI;
 266:Generated_Source\PSoC4/cyPm.c **** 
 267:Generated_Source\PSoC4/cyPm.c ****         /* Wakeup from Stop is performed by toggling of Wakeup pin,
 268:Generated_Source\PSoC4/cyPm.c ****          * causing a normal Boot procedure to occur. No need to exit
 269:Generated_Source\PSoC4/cyPm.c ****          * from the critical section.
 270:Generated_Source\PSoC4/cyPm.c ****          */
 271:Generated_Source\PSoC4/cyPm.c ****     }
 272:Generated_Source\PSoC4/cyPm.c **** 
 273:Generated_Source\PSoC4/cyPm.c **** 
 274:Generated_Source\PSoC4/cyPm.c ****     /*******************************************************************************
 275:Generated_Source\PSoC4/cyPm.c ****     * Function Name: CySysPmSetWakeupPolarity
 276:Generated_Source\PSoC4/cyPm.c ****     ****************************************************************************//**
 277:Generated_Source\PSoC4/cyPm.c ****     *
 278:Generated_Source\PSoC4/cyPm.c ****     * Wake up from the stop mode is performed by toggling the wakeup pin,
 279:Generated_Source\PSoC4/cyPm.c ****     * causing a normal boot procedure to occur. This function assigns
 280:Generated_Source\PSoC4/cyPm.c ****     * the wakeup pin active level. Setting the wakeup pin to this level will cause
 281:Generated_Source\PSoC4/cyPm.c ****     * the wakeup from stop mode. The wakeup pin is active low by default.
 282:Generated_Source\PSoC4/cyPm.c ****     *
 283:Generated_Source\PSoC4/cyPm.c ****     * \param polarity
 284:Generated_Source\PSoC4/cyPm.c ****     * - \ref CY_PM_STOP_WAKEUP_ACTIVE_LOW Logical zero will wakeup the chip
 285:Generated_Source\PSoC4/cyPm.c ****     * - \ref CY_PM_STOP_WAKEUP_ACTIVE_HIGH Logical one will wakeup the chip
 286:Generated_Source\PSoC4/cyPm.c ****     *
 287:Generated_Source\PSoC4/cyPm.c ****     *******************************************************************************/
 288:Generated_Source\PSoC4/cyPm.c ****     void CySysPmSetWakeupPolarity(uint32 polarity)
 289:Generated_Source\PSoC4/cyPm.c ****     {
 290:Generated_Source\PSoC4/cyPm.c ****         uint8 interruptState;
 291:Generated_Source\PSoC4/cyPm.c **** 
 292:Generated_Source\PSoC4/cyPm.c ****         interruptState = CyEnterCriticalSection();
 293:Generated_Source\PSoC4/cyPm.c **** 
 294:Generated_Source\PSoC4/cyPm.c ****         CY_PM_PWR_STOP_REG = (CY_PM_STOP_WAKEUP_ACTIVE_LOW != polarity) ?
 295:Generated_Source\PSoC4/cyPm.c ****                             (CY_PM_PWR_STOP_REG | CY_PM_PWR_STOP_POLARITY) :
 296:Generated_Source\PSoC4/cyPm.c ****                             (CY_PM_PWR_STOP_REG & (uint32) (~CY_PM_PWR_STOP_POLARITY));
 297:Generated_Source\PSoC4/cyPm.c **** 
 298:Generated_Source\PSoC4/cyPm.c ****         CyExitCriticalSection(interruptState);
 299:Generated_Source\PSoC4/cyPm.c ****     }
 300:Generated_Source\PSoC4/cyPm.c **** 
 301:Generated_Source\PSoC4/cyPm.c **** 
 302:Generated_Source\PSoC4/cyPm.c ****     /*******************************************************************************
 303:Generated_Source\PSoC4/cyPm.c ****     * Function Name: CySysPmGetResetReason
 304:Generated_Source\PSoC4/cyPm.c ****     ****************************************************************************//**
 305:Generated_Source\PSoC4/cyPm.c ****     *
 306:Generated_Source\PSoC4/cyPm.c ****     * Retrieves the last reset reason - transition from OFF/XRES/STOP/HIBERNATE to
 307:Generated_Source\PSoC4/cyPm.c ****     * the RESET state. Note that waking up from STOP using XRES will be perceived
ARM GAS  C:\Users\unyacat\AppData\Local\Temp\ccVMOIUr.s 			page 56


 308:Generated_Source\PSoC4/cyPm.c ****     * as a general RESET.
 309:Generated_Source\PSoC4/cyPm.c ****     *
 310:Generated_Source\PSoC4/cyPm.c ****     * \return CY_PM_RESET_REASON_UNKN          Unknown reset reason.
 311:Generated_Source\PSoC4/cyPm.c ****     * \return CY_PM_RESET_REASON_XRES          Transition from OFF/XRES to RESET
 312:Generated_Source\PSoC4/cyPm.c ****     * \return CY_PM_RESET_REASON_WAKEUP_HIB    Transition/wakeup from HIBERNATE to RESET
 313:Generated_Source\PSoC4/cyPm.c ****     * \return CY_PM_RESET_REASON_WAKEUP_STOP   Transition/wakeup from STOP to RESET
 314:Generated_Source\PSoC4/cyPm.c ****     *
 315:Generated_Source\PSoC4/cyPm.c ****     *******************************************************************************/
 316:Generated_Source\PSoC4/cyPm.c ****     uint32 CySysPmGetResetReason(void)
 317:Generated_Source\PSoC4/cyPm.c ****     {
 318:Generated_Source\PSoC4/cyPm.c ****         uint32 reason = CY_PM_RESET_REASON_UNKN;
 319:Generated_Source\PSoC4/cyPm.c **** 
 320:Generated_Source\PSoC4/cyPm.c ****         switch(CY_PM_PWR_STOP_REG & CY_PM_PWR_STOP_TOKEN_MASK)
 321:Generated_Source\PSoC4/cyPm.c ****         {
 322:Generated_Source\PSoC4/cyPm.c ****         /* Power up, XRES */
 323:Generated_Source\PSoC4/cyPm.c ****         case CY_PM_PWR_STOP_TOKEN_XRES:
 324:Generated_Source\PSoC4/cyPm.c ****             reason = CY_PM_RESET_REASON_XRES;
 325:Generated_Source\PSoC4/cyPm.c ****             break;
 326:Generated_Source\PSoC4/cyPm.c **** 
 327:Generated_Source\PSoC4/cyPm.c ****         /* Wakeup from Hibernate */
 328:Generated_Source\PSoC4/cyPm.c ****         case CY_PM_PWR_STOP_TOKEN_HIB:
 329:Generated_Source\PSoC4/cyPm.c ****             reason = CY_PM_RESET_REASON_WAKEUP_HIB;
 330:Generated_Source\PSoC4/cyPm.c ****             break;
 331:Generated_Source\PSoC4/cyPm.c **** 
 332:Generated_Source\PSoC4/cyPm.c ****         /* Wakeup from Stop (through WAKEUP pin assert) */
 333:Generated_Source\PSoC4/cyPm.c ****         case CY_PM_PWR_STOP_TOKEN_STOP:
 334:Generated_Source\PSoC4/cyPm.c ****             reason = CY_PM_RESET_REASON_WAKEUP_STOP;
 335:Generated_Source\PSoC4/cyPm.c ****             break;
 336:Generated_Source\PSoC4/cyPm.c **** 
 337:Generated_Source\PSoC4/cyPm.c ****         /* Unknown reason */
 338:Generated_Source\PSoC4/cyPm.c ****         default:
 339:Generated_Source\PSoC4/cyPm.c ****             break;
 340:Generated_Source\PSoC4/cyPm.c ****         }
 341:Generated_Source\PSoC4/cyPm.c **** 
 342:Generated_Source\PSoC4/cyPm.c ****         return (reason);
 343:Generated_Source\PSoC4/cyPm.c ****     }
 344:Generated_Source\PSoC4/cyPm.c **** 
 345:Generated_Source\PSoC4/cyPm.c **** 
 346:Generated_Source\PSoC4/cyPm.c ****     /*******************************************************************************
 347:Generated_Source\PSoC4/cyPm.c ****     * Function Name: CySysPmFreezeIo
 348:Generated_Source\PSoC4/cyPm.c ****     ****************************************************************************//**
 349:Generated_Source\PSoC4/cyPm.c ****     *
 350:Generated_Source\PSoC4/cyPm.c ****     * Freezes IO-Cells directly to save the IO-Cell state on wake up from the
 351:Generated_Source\PSoC4/cyPm.c ****     * Hibernate or Stop state. It is not required to call this function before
 352:Generated_Source\PSoC4/cyPm.c ****     * entering the Stop mode, since \ref CySysPmStop() function freezes IO-Cells
 353:Generated_Source\PSoC4/cyPm.c ****     * implicitly.
 354:Generated_Source\PSoC4/cyPm.c ****     *
 355:Generated_Source\PSoC4/cyPm.c ****     * This API is not available for PSoC 4000 family of devices.
 356:Generated_Source\PSoC4/cyPm.c ****     *
 357:Generated_Source\PSoC4/cyPm.c ****     *******************************************************************************/
 358:Generated_Source\PSoC4/cyPm.c ****     void CySysPmFreezeIo(void)
 359:Generated_Source\PSoC4/cyPm.c ****     {
 360:Generated_Source\PSoC4/cyPm.c ****         uint8 interruptState;
 361:Generated_Source\PSoC4/cyPm.c **** 
 362:Generated_Source\PSoC4/cyPm.c ****         interruptState = CyEnterCriticalSection();
 872              		.loc 1 362 0
 873 0016 FFF7FEFF 		bl	CyEnterCriticalSection
ARM GAS  C:\Users\unyacat\AppData\Local\Temp\ccVMOIUr.s 			page 57


 874              	.LVL10:
 363:Generated_Source\PSoC4/cyPm.c **** 
 364:Generated_Source\PSoC4/cyPm.c ****         /* Check FREEZE state to avoid recurrent IO-Cells freeze attempt,
 365:Generated_Source\PSoC4/cyPm.c ****          * since the second call to this function will cause accidental switch
 366:Generated_Source\PSoC4/cyPm.c ****          * to the STOP mode (the system will enter STOP mode immediately after
 367:Generated_Source\PSoC4/cyPm.c ****          * writing to STOP bit since both UNLOCK and FREEZE have been set correctly
 368:Generated_Source\PSoC4/cyPm.c ****          * in a previous call to this function).
 369:Generated_Source\PSoC4/cyPm.c ****          */
 370:Generated_Source\PSoC4/cyPm.c ****         if (0u == (CY_PM_PWR_STOP_REG & CY_PM_PWR_STOP_FREEZE))
 875              		.loc 1 370 0
 876 001a 2368     		ldr	r3, [r4]
 877 001c 9B03     		lsls	r3, r3, #14
 878 001e 09D4     		bmi	.L11
 371:Generated_Source\PSoC4/cyPm.c ****         {
 372:Generated_Source\PSoC4/cyPm.c ****             /* Preserve last reset reason and disable overrides the next freeze command by peripher
 373:Generated_Source\PSoC4/cyPm.c ****             CY_PM_PWR_STOP_REG = CY_PM_PWR_STOP_STOP | CY_PM_PWR_STOP_FREEZE | CY_PM_PWR_STOP_UNLOC
 374:Generated_Source\PSoC4/cyPm.c ****                                 (CY_PM_PWR_STOP_REG & (CY_PM_PWR_STOP_TOKEN_MASK | CY_PM_PWR_STOP_P
 879              		.loc 1 374 0
 880 0020 2268     		ldr	r2, [r4]
 373:Generated_Source\PSoC4/cyPm.c ****                                 (CY_PM_PWR_STOP_REG & (CY_PM_PWR_STOP_TOKEN_MASK | CY_PM_PWR_STOP_P
 881              		.loc 1 373 0
 882 0022 0B4B     		ldr	r3, .L13+4
 883 0024 1340     		ands	r3, r2
 884 0026 0B4A     		ldr	r2, .L13+8
 885 0028 1343     		orrs	r3, r2
 886 002a 2360     		str	r3, [r4]
 375:Generated_Source\PSoC4/cyPm.c **** 
 376:Generated_Source\PSoC4/cyPm.c ****             /* If reading after writing, read this register three times to delay
 377:Generated_Source\PSoC4/cyPm.c ****             *  enough time for internal settling.
 378:Generated_Source\PSoC4/cyPm.c ****             */
 379:Generated_Source\PSoC4/cyPm.c ****             (void) CY_PM_PWR_STOP_REG;
 887              		.loc 1 379 0
 888 002c 2368     		ldr	r3, [r4]
 380:Generated_Source\PSoC4/cyPm.c ****             (void) CY_PM_PWR_STOP_REG;
 889              		.loc 1 380 0
 890 002e 2368     		ldr	r3, [r4]
 381:Generated_Source\PSoC4/cyPm.c **** 
 382:Generated_Source\PSoC4/cyPm.c ****             /* Second write causes the freeze of IO-Cells to save IO-Cell state */
 383:Generated_Source\PSoC4/cyPm.c ****             CY_PM_PWR_STOP_REG = CY_PM_PWR_STOP_REG;
 891              		.loc 1 383 0
 892 0030 2368     		ldr	r3, [r4]
 893 0032 2360     		str	r3, [r4]
 894              	.L11:
 384:Generated_Source\PSoC4/cyPm.c ****         }
 385:Generated_Source\PSoC4/cyPm.c **** 
 386:Generated_Source\PSoC4/cyPm.c ****         CyExitCriticalSection(interruptState);
 895              		.loc 1 386 0
 896 0034 FFF7FEFF 		bl	CyExitCriticalSection
 897              	.LVL11:
 898              	.LBE13:
 899              	.LBE12:
 254:Generated_Source\PSoC4/cyPm.c **** 
 900              		.loc 1 254 0
 901 0038 8021     		movs	r1, #128
 902 003a 044A     		ldr	r2, .L13
 903 003c 0906     		lsls	r1, r1, #24
 904 003e 1368     		ldr	r3, [r2]
ARM GAS  C:\Users\unyacat\AppData\Local\Temp\ccVMOIUr.s 			page 58


 905 0040 0B43     		orrs	r3, r1
 906 0042 1360     		str	r3, [r2]
 261:Generated_Source\PSoC4/cyPm.c ****         CY_NOP;
 907              		.loc 1 261 0
 908              		.syntax divided
 909              	@ 261 "Generated_Source\PSoC4\cyPm.c" 1
 910 0044 C046     		NOP
 911              	
 912              	@ 0 "" 2
 262:Generated_Source\PSoC4/cyPm.c **** 
 913              		.loc 1 262 0
 914              	@ 262 "Generated_Source\PSoC4\cyPm.c" 1
 915 0046 C046     		NOP
 916              	
 917              	@ 0 "" 2
 265:Generated_Source\PSoC4/cyPm.c **** 
 918              		.loc 1 265 0
 919              	@ 265 "Generated_Source\PSoC4\cyPm.c" 1
 920 0048 30BF     		WFI 
 921              	
 922              	@ 0 "" 2
 271:Generated_Source\PSoC4/cyPm.c **** 
 923              		.loc 1 271 0
 924              		.thumb
 925              		.syntax unified
 926              		@ sp needed
 927 004a 10BD     		pop	{r4, pc}
 928              	.L14:
 929              		.align	2
 930              	.L13:
 931 004c 2C000B40 		.word	1074462764
 932 0050 FF000100 		.word	65791
 933 0054 003A0280 		.word	-2147337728
 934              		.cfi_endproc
 935              	.LFE6:
 936              		.size	CySysPmStop, .-CySysPmStop
 937              		.section	.text.CySysPmSetWakeupPolarity,"ax",%progbits
 938              		.align	2
 939              		.global	CySysPmSetWakeupPolarity
 940              		.code	16
 941              		.thumb_func
 942              		.type	CySysPmSetWakeupPolarity, %function
 943              	CySysPmSetWakeupPolarity:
 944              	.LFB7:
 289:Generated_Source\PSoC4/cyPm.c ****         uint8 interruptState;
 945              		.loc 1 289 0
 946              		.cfi_startproc
 947              		@ args = 0, pretend = 0, frame = 0
 948              		@ frame_needed = 0, uses_anonymous_args = 0
 949              	.LVL12:
 950 0000 10B5     		push	{r4, lr}
 951              		.cfi_def_cfa_offset 8
 952              		.cfi_offset 4, -8
 953              		.cfi_offset 14, -4
 289:Generated_Source\PSoC4/cyPm.c ****         uint8 interruptState;
 954              		.loc 1 289 0
 955 0002 0400     		movs	r4, r0
ARM GAS  C:\Users\unyacat\AppData\Local\Temp\ccVMOIUr.s 			page 59


 292:Generated_Source\PSoC4/cyPm.c **** 
 956              		.loc 1 292 0
 957 0004 FFF7FEFF 		bl	CyEnterCriticalSection
 958              	.LVL13:
 295:Generated_Source\PSoC4/cyPm.c ****                             (CY_PM_PWR_STOP_REG & (uint32) (~CY_PM_PWR_STOP_POLARITY));
 959              		.loc 1 295 0
 960 0008 074B     		ldr	r3, .L19
 961 000a 002C     		cmp	r4, #0
 962 000c 07D1     		bne	.L18
 296:Generated_Source\PSoC4/cyPm.c **** 
 963              		.loc 1 296 0 discriminator 2
 964 000e 1A68     		ldr	r2, [r3]
 295:Generated_Source\PSoC4/cyPm.c ****                             (CY_PM_PWR_STOP_REG & (uint32) (~CY_PM_PWR_STOP_POLARITY));
 965              		.loc 1 295 0 discriminator 2
 966 0010 064B     		ldr	r3, .L19+4
 967 0012 1340     		ands	r3, r2
 968              	.L17:
 294:Generated_Source\PSoC4/cyPm.c ****                             (CY_PM_PWR_STOP_REG | CY_PM_PWR_STOP_POLARITY) :
 969              		.loc 1 294 0
 970 0014 044A     		ldr	r2, .L19
 299:Generated_Source\PSoC4/cyPm.c **** 
 971              		.loc 1 299 0
 972              		@ sp needed
 294:Generated_Source\PSoC4/cyPm.c ****                             (CY_PM_PWR_STOP_REG | CY_PM_PWR_STOP_POLARITY) :
 973              		.loc 1 294 0
 974 0016 1360     		str	r3, [r2]
 298:Generated_Source\PSoC4/cyPm.c ****     }
 975              		.loc 1 298 0
 976 0018 FFF7FEFF 		bl	CyExitCriticalSection
 977              	.LVL14:
 978              	.LVL15:
 299:Generated_Source\PSoC4/cyPm.c **** 
 979              		.loc 1 299 0
 980 001c 10BD     		pop	{r4, pc}
 981              	.LVL16:
 982              	.L18:
 295:Generated_Source\PSoC4/cyPm.c ****                             (CY_PM_PWR_STOP_REG & (uint32) (~CY_PM_PWR_STOP_POLARITY));
 983              		.loc 1 295 0 discriminator 1
 984 001e 8022     		movs	r2, #128
 985 0020 1B68     		ldr	r3, [r3]
 986 0022 5202     		lsls	r2, r2, #9
 987 0024 1343     		orrs	r3, r2
 988 0026 F5E7     		b	.L17
 989              	.L20:
 990              		.align	2
 991              	.L19:
 992 0028 2C000B40 		.word	1074462764
 993 002c FFFFFEFF 		.word	-65537
 994              		.cfi_endproc
 995              	.LFE7:
 996              		.size	CySysPmSetWakeupPolarity, .-CySysPmSetWakeupPolarity
 997              		.section	.text.CySysPmGetResetReason,"ax",%progbits
 998              		.align	2
 999              		.global	CySysPmGetResetReason
 1000              		.code	16
 1001              		.thumb_func
 1002              		.type	CySysPmGetResetReason, %function
ARM GAS  C:\Users\unyacat\AppData\Local\Temp\ccVMOIUr.s 			page 60


 1003              	CySysPmGetResetReason:
 1004              	.LFB8:
 317:Generated_Source\PSoC4/cyPm.c ****         uint32 reason = CY_PM_RESET_REASON_UNKN;
 1005              		.loc 1 317 0
 1006              		.cfi_startproc
 1007              		@ args = 0, pretend = 0, frame = 0
 1008              		@ frame_needed = 0, uses_anonymous_args = 0
 1009              		@ link register save eliminated.
 1010              	.LVL17:
 320:Generated_Source\PSoC4/cyPm.c ****         {
 1011              		.loc 1 320 0
 1012 0000 FF20     		movs	r0, #255
 1013 0002 074B     		ldr	r3, .L27
 1014 0004 1B68     		ldr	r3, [r3]
 1015 0006 1840     		ands	r0, r3
 1016 0008 F128     		cmp	r0, #241
 1017 000a 04D0     		beq	.L23
 1018 000c F228     		cmp	r0, #242
 1019 000e 04D0     		beq	.L24
 318:Generated_Source\PSoC4/cyPm.c **** 
 1020              		.loc 1 318 0
 1021 0010 4342     		rsbs	r3, r0, #0
 1022 0012 5841     		adcs	r0, r0, r3
 1023              	.LVL18:
 1024              	.L22:
 343:Generated_Source\PSoC4/cyPm.c **** 
 1025              		.loc 1 343 0
 1026              		@ sp needed
 1027 0014 7047     		bx	lr
 1028              	.LVL19:
 1029              	.L23:
 329:Generated_Source\PSoC4/cyPm.c ****             break;
 1030              		.loc 1 329 0
 1031 0016 0220     		movs	r0, #2
 330:Generated_Source\PSoC4/cyPm.c **** 
 1032              		.loc 1 330 0
 1033 0018 FCE7     		b	.L22
 1034              	.LVL20:
 1035              	.L24:
 334:Generated_Source\PSoC4/cyPm.c ****             break;
 1036              		.loc 1 334 0
 1037 001a 0320     		movs	r0, #3
 335:Generated_Source\PSoC4/cyPm.c **** 
 1038              		.loc 1 335 0
 1039 001c FAE7     		b	.L22
 1040              	.L28:
 1041 001e C046     		.align	2
 1042              	.L27:
 1043 0020 2C000B40 		.word	1074462764
 1044              		.cfi_endproc
 1045              	.LFE8:
 1046              		.size	CySysPmGetResetReason, .-CySysPmGetResetReason
 1047              		.section	.text.CySysPmFreezeIo,"ax",%progbits
 1048              		.align	2
 1049              		.global	CySysPmFreezeIo
 1050              		.code	16
 1051              		.thumb_func
ARM GAS  C:\Users\unyacat\AppData\Local\Temp\ccVMOIUr.s 			page 61


 1052              		.type	CySysPmFreezeIo, %function
 1053              	CySysPmFreezeIo:
 1054              	.LFB9:
 359:Generated_Source\PSoC4/cyPm.c ****         uint8 interruptState;
 1055              		.loc 1 359 0
 1056              		.cfi_startproc
 1057              		@ args = 0, pretend = 0, frame = 0
 1058              		@ frame_needed = 0, uses_anonymous_args = 0
 1059 0000 10B5     		push	{r4, lr}
 1060              		.cfi_def_cfa_offset 8
 1061              		.cfi_offset 4, -8
 1062              		.cfi_offset 14, -4
 362:Generated_Source\PSoC4/cyPm.c **** 
 1063              		.loc 1 362 0
 1064 0002 FFF7FEFF 		bl	CyEnterCriticalSection
 1065              	.LVL21:
 370:Generated_Source\PSoC4/cyPm.c ****         {
 1066              		.loc 1 370 0
 1067 0006 084B     		ldr	r3, .L31
 1068 0008 1A68     		ldr	r2, [r3]
 1069 000a 9203     		lsls	r2, r2, #14
 1070 000c 09D4     		bmi	.L30
 374:Generated_Source\PSoC4/cyPm.c **** 
 1071              		.loc 1 374 0
 1072 000e 1968     		ldr	r1, [r3]
 373:Generated_Source\PSoC4/cyPm.c ****                                 (CY_PM_PWR_STOP_REG & (CY_PM_PWR_STOP_TOKEN_MASK | CY_PM_PWR_STOP_P
 1073              		.loc 1 373 0
 1074 0010 064A     		ldr	r2, .L31+4
 1075 0012 0A40     		ands	r2, r1
 1076 0014 0649     		ldr	r1, .L31+8
 1077 0016 0A43     		orrs	r2, r1
 1078 0018 1A60     		str	r2, [r3]
 379:Generated_Source\PSoC4/cyPm.c ****             (void) CY_PM_PWR_STOP_REG;
 1079              		.loc 1 379 0
 1080 001a 1A68     		ldr	r2, [r3]
 380:Generated_Source\PSoC4/cyPm.c **** 
 1081              		.loc 1 380 0
 1082 001c 1A68     		ldr	r2, [r3]
 383:Generated_Source\PSoC4/cyPm.c ****         }
 1083              		.loc 1 383 0
 1084 001e 1A68     		ldr	r2, [r3]
 1085 0020 1A60     		str	r2, [r3]
 1086              	.L30:
 1087              		.loc 1 386 0
 1088 0022 FFF7FEFF 		bl	CyExitCriticalSection
 1089              	.LVL22:
 387:Generated_Source\PSoC4/cyPm.c ****     }
 1090              		.loc 1 387 0
 1091              		@ sp needed
 1092 0026 10BD     		pop	{r4, pc}
 1093              	.L32:
 1094              		.align	2
 1095              	.L31:
 1096 0028 2C000B40 		.word	1074462764
 1097 002c FF000100 		.word	65791
 1098 0030 003A0280 		.word	-2147337728
 1099              		.cfi_endproc
ARM GAS  C:\Users\unyacat\AppData\Local\Temp\ccVMOIUr.s 			page 62


 1100              	.LFE9:
 1101              		.size	CySysPmFreezeIo, .-CySysPmFreezeIo
 1102              		.section	.text.CySysPmUnfreezeIo,"ax",%progbits
 1103              		.align	2
 1104              		.global	CySysPmUnfreezeIo
 1105              		.code	16
 1106              		.thumb_func
 1107              		.type	CySysPmUnfreezeIo, %function
 1108              	CySysPmUnfreezeIo:
 1109              	.LFB10:
 388:Generated_Source\PSoC4/cyPm.c **** 
 389:Generated_Source\PSoC4/cyPm.c **** 
 390:Generated_Source\PSoC4/cyPm.c ****     /*******************************************************************************
 391:Generated_Source\PSoC4/cyPm.c ****     * Function Name: CySysPmUnfreezeIo
 392:Generated_Source\PSoC4/cyPm.c ****     ****************************************************************************//**
 393:Generated_Source\PSoC4/cyPm.c ****     *
 394:Generated_Source\PSoC4/cyPm.c ****     * The IO-Cells remain frozen after awake from Hibernate or Stop mode until
 395:Generated_Source\PSoC4/cyPm.c ****     * the firmware unfreezes them after booting. The call of this function
 396:Generated_Source\PSoC4/cyPm.c ****     * unfreezes IO-Cells explicitly.
 397:Generated_Source\PSoC4/cyPm.c ****     *
 398:Generated_Source\PSoC4/cyPm.c ****     * If the firmware intent is to retain the data value on the port, then the
 399:Generated_Source\PSoC4/cyPm.c ****     * value must be read and re-written to the data register before calling this
 400:Generated_Source\PSoC4/cyPm.c ****     * API. Furthermore, the drive mode must be re-programmed.  If this is not done,
 401:Generated_Source\PSoC4/cyPm.c ****     * the pin state will change to default state the moment the freeze is removed.
 402:Generated_Source\PSoC4/cyPm.c ****     *
 403:Generated_Source\PSoC4/cyPm.c ****     * This API is not available for PSoC 4000 family of devices.
 404:Generated_Source\PSoC4/cyPm.c ****     *
 405:Generated_Source\PSoC4/cyPm.c ****     *******************************************************************************/
 406:Generated_Source\PSoC4/cyPm.c ****     void CySysPmUnfreezeIo(void)
 407:Generated_Source\PSoC4/cyPm.c ****     {
 1110              		.loc 1 407 0
 1111              		.cfi_startproc
 1112              		@ args = 0, pretend = 0, frame = 0
 1113              		@ frame_needed = 0, uses_anonymous_args = 0
 1114 0000 10B5     		push	{r4, lr}
 1115              		.cfi_def_cfa_offset 8
 1116              		.cfi_offset 4, -8
 1117              		.cfi_offset 14, -4
 408:Generated_Source\PSoC4/cyPm.c ****         uint8 interruptState;
 409:Generated_Source\PSoC4/cyPm.c **** 
 410:Generated_Source\PSoC4/cyPm.c ****         interruptState = CyEnterCriticalSection();
 411:Generated_Source\PSoC4/cyPm.c **** 
 412:Generated_Source\PSoC4/cyPm.c ****         /* Preserve last reset reason and wakeup polarity. Then, unfreeze I/O:
 413:Generated_Source\PSoC4/cyPm.c ****          * write PWR_STOP.FREEZE=0, .UNLOCK=0x3A, .STOP=0, .TOKEN
 414:Generated_Source\PSoC4/cyPm.c ****          */
 415:Generated_Source\PSoC4/cyPm.c ****         CY_PM_PWR_STOP_REG = CY_PM_PWR_STOP_UNLOCK |
 1118              		.loc 1 415 0
 1119 0002 E824     		movs	r4, #232
 410:Generated_Source\PSoC4/cyPm.c **** 
 1120              		.loc 1 410 0
 1121 0004 FFF7FEFF 		bl	CyEnterCriticalSection
 1122              	.LVL23:
 416:Generated_Source\PSoC4/cyPm.c ****                             (CY_PM_PWR_STOP_REG & (CY_PM_PWR_STOP_TOKEN_MASK | CY_PM_PWR_STOP_POLAR
 1123              		.loc 1 416 0
 1124 0008 074B     		ldr	r3, .L34
 415:Generated_Source\PSoC4/cyPm.c ****                             (CY_PM_PWR_STOP_REG & (CY_PM_PWR_STOP_TOKEN_MASK | CY_PM_PWR_STOP_POLAR
 1125              		.loc 1 415 0
ARM GAS  C:\Users\unyacat\AppData\Local\Temp\ccVMOIUr.s 			page 63


 1126 000a 0849     		ldr	r1, .L34+4
 1127              		.loc 1 416 0
 1128 000c 1A68     		ldr	r2, [r3]
 415:Generated_Source\PSoC4/cyPm.c ****                             (CY_PM_PWR_STOP_REG & (CY_PM_PWR_STOP_TOKEN_MASK | CY_PM_PWR_STOP_POLAR
 1129              		.loc 1 415 0
 1130 000e A401     		lsls	r4, r4, #6
 1131 0010 0A40     		ands	r2, r1
 1132 0012 2243     		orrs	r2, r4
 1133 0014 1A60     		str	r2, [r3]
 417:Generated_Source\PSoC4/cyPm.c **** 
 418:Generated_Source\PSoC4/cyPm.c ****         /* If reading after writing, read this register three times to delay
 419:Generated_Source\PSoC4/cyPm.c ****         *  enough time for internal settling.
 420:Generated_Source\PSoC4/cyPm.c ****         */
 421:Generated_Source\PSoC4/cyPm.c ****         (void) CY_PM_PWR_STOP_REG;
 1134              		.loc 1 421 0
 1135 0016 1A68     		ldr	r2, [r3]
 422:Generated_Source\PSoC4/cyPm.c ****         (void) CY_PM_PWR_STOP_REG;
 1136              		.loc 1 422 0
 1137 0018 1A68     		ldr	r2, [r3]
 423:Generated_Source\PSoC4/cyPm.c **** 
 424:Generated_Source\PSoC4/cyPm.c ****         /* Lock STOP mode: write PWR_STOP.FREEZE=0, UNLOCK=0x00, STOP=0, .TOKEN */
 425:Generated_Source\PSoC4/cyPm.c ****         CY_PM_PWR_STOP_REG &= (CY_PM_PWR_STOP_TOKEN_MASK | CY_PM_PWR_STOP_POLARITY);
 1138              		.loc 1 425 0
 1139 001a 1A68     		ldr	r2, [r3]
 426:Generated_Source\PSoC4/cyPm.c **** 
 427:Generated_Source\PSoC4/cyPm.c ****         CyExitCriticalSection(interruptState);
 428:Generated_Source\PSoC4/cyPm.c ****     }
 1140              		.loc 1 428 0
 1141              		@ sp needed
 425:Generated_Source\PSoC4/cyPm.c **** 
 1142              		.loc 1 425 0
 1143 001c 1140     		ands	r1, r2
 1144 001e 1960     		str	r1, [r3]
 427:Generated_Source\PSoC4/cyPm.c ****     }
 1145              		.loc 1 427 0
 1146 0020 FFF7FEFF 		bl	CyExitCriticalSection
 1147              	.LVL24:
 1148              		.loc 1 428 0
 1149 0024 10BD     		pop	{r4, pc}
 1150              	.L35:
 1151 0026 C046     		.align	2
 1152              	.L34:
 1153 0028 2C000B40 		.word	1074462764
 1154 002c FF000100 		.word	65791
 1155              		.cfi_endproc
 1156              	.LFE10:
 1157              		.size	CySysPmUnfreezeIo, .-CySysPmUnfreezeIo
 1158              		.text
 1159              	.Letext0:
 1160              		.file 3 "Generated_Source\\PSoC4\\cytypes.h"
 1161              		.file 4 "Generated_Source\\PSoC4\\CyLib.h"